
main.elf:     file format elf32-avr

Sections:
Idx Name          Size      VMA       LMA       File off  Algn
  0 .data         00000000  00800100  000018c4  00001938  2**0
                  CONTENTS, ALLOC, LOAD, DATA
  1 .text         000018c4  00000000  00000000  00000074  2**1
                  CONTENTS, ALLOC, LOAD, READONLY, CODE
  2 .comment      00000026  00000000  00000000  00001938  2**0
                  CONTENTS, READONLY
  3 .note.gnu.avr.deviceinfo 00000040  00000000  00000000  00001960  2**2
                  CONTENTS, READONLY, OCTETS
  4 .debug_aranges 00000088  00000000  00000000  000019a0  2**3
                  CONTENTS, READONLY, DEBUGGING, OCTETS
  5 .debug_info   00000a7c  00000000  00000000  00001a28  2**0
                  CONTENTS, READONLY, DEBUGGING, OCTETS
  6 .debug_abbrev 00000752  00000000  00000000  000024a4  2**0
                  CONTENTS, READONLY, DEBUGGING, OCTETS
  7 .debug_line   000008a8  00000000  00000000  00002bf6  2**0
                  CONTENTS, READONLY, DEBUGGING, OCTETS
  8 .debug_frame  00000044  00000000  00000000  000034a0  2**2
                  CONTENTS, READONLY, DEBUGGING, OCTETS
  9 .debug_str    000003c5  00000000  00000000  000034e4  2**0
                  CONTENTS, READONLY, DEBUGGING, OCTETS
 10 .debug_loc    0000037a  00000000  00000000  000038a9  2**0
                  CONTENTS, READONLY, DEBUGGING, OCTETS
 11 .debug_ranges 00000148  00000000  00000000  00003c23  2**0
                  CONTENTS, READONLY, DEBUGGING, OCTETS

Disassembly of section .text:

00000000 <__vectors>:
       0:	0c 94 dc 00 	jmp	0x1b8	; 0x1b8 <__ctors_end>
       4:	0c 94 e6 00 	jmp	0x1cc	; 0x1cc <__bad_interrupt>
       8:	0c 94 e6 00 	jmp	0x1cc	; 0x1cc <__bad_interrupt>
       c:	0c 94 e6 00 	jmp	0x1cc	; 0x1cc <__bad_interrupt>
      10:	0c 94 e6 00 	jmp	0x1cc	; 0x1cc <__bad_interrupt>
      14:	0c 94 e6 00 	jmp	0x1cc	; 0x1cc <__bad_interrupt>
      18:	0c 94 e6 00 	jmp	0x1cc	; 0x1cc <__bad_interrupt>
      1c:	0c 94 e6 00 	jmp	0x1cc	; 0x1cc <__bad_interrupt>
      20:	0c 94 e6 00 	jmp	0x1cc	; 0x1cc <__bad_interrupt>
      24:	0c 94 e6 00 	jmp	0x1cc	; 0x1cc <__bad_interrupt>
      28:	0c 94 e6 00 	jmp	0x1cc	; 0x1cc <__bad_interrupt>
      2c:	0c 94 e6 00 	jmp	0x1cc	; 0x1cc <__bad_interrupt>
      30:	0c 94 e6 00 	jmp	0x1cc	; 0x1cc <__bad_interrupt>
      34:	0c 94 e6 00 	jmp	0x1cc	; 0x1cc <__bad_interrupt>
      38:	0c 94 e6 00 	jmp	0x1cc	; 0x1cc <__bad_interrupt>
      3c:	0c 94 e6 00 	jmp	0x1cc	; 0x1cc <__bad_interrupt>
      40:	0c 94 e6 00 	jmp	0x1cc	; 0x1cc <__bad_interrupt>
      44:	0c 94 e6 00 	jmp	0x1cc	; 0x1cc <__bad_interrupt>
      48:	0c 94 e6 00 	jmp	0x1cc	; 0x1cc <__bad_interrupt>
      4c:	0c 94 e6 00 	jmp	0x1cc	; 0x1cc <__bad_interrupt>
      50:	0c 94 e6 00 	jmp	0x1cc	; 0x1cc <__bad_interrupt>
      54:	0c 94 e6 00 	jmp	0x1cc	; 0x1cc <__bad_interrupt>
      58:	0c 94 e6 00 	jmp	0x1cc	; 0x1cc <__bad_interrupt>
      5c:	0c 94 e6 00 	jmp	0x1cc	; 0x1cc <__bad_interrupt>
      60:	0c 94 e6 00 	jmp	0x1cc	; 0x1cc <__bad_interrupt>
      64:	0c 94 e6 00 	jmp	0x1cc	; 0x1cc <__bad_interrupt>

00000068 <__c.2225>:
      68:	6e 61 6e 00                                         nan.

0000006c <__c.2223>:
      6c:	69 6e 66 00                                         inf.

00000070 <.L_powr10>:
      70:	00 40 7a 10 f3 5a 00 a0 72 4e 18 09 00 10 a5 d4     .@z..Z..rN......
      80:	e8 00 00 e8 76 48 17 00 00 e4 0b 54 02 00 00 ca     ....vH.....T....
      90:	9a 3b 00 00 00 e1 f5 05 00 00 80 96 98 00 00 00     .;..............
      a0:	40 42 0f 00 00 00 a0 86 01 00 00 00 10 27 00 00     @B...........'..
      b0:	00 00 e8 03 00 00 00 00 64 00 00 00 00 00 0a 00     ........d.......
      c0:	00 00 00 00 01 00 00 00 00 00                       ..........

000000ca <.L_base10>:
      ca:	2c 76 d8 88 dc 67 4f 08 23 df c1 df ae 59 e1 b1     ,v...gO.#....Y..
      da:	b7 96 e5 e3 e4 53 c6 3a e6 51 99 76 96 e8 e6 c2     .....S.:.Q.v....
      ea:	84 26 eb 89 8c 9b 62 ed 40 7c 6f fc ef bc 9c 9f     .&....b.@|o.....
      fa:	40 f2 ba a5 6f a5 f4 90 05 5a 2a f7 5c 93 6b 6c     @...o....Z*.\.kl
     10a:	f9 67 6d c1 1b fc e0 e4 0d 47 fe f5 20 e6 b5 00     .gm......G.. ...
     11a:	d0 ed 90 2e 03 00 94 35 77 05 00 80 84 1e 08 00     .......5w.......
     12a:	00 20 4e 0a 00 00 00 c8 0c 33 33 33 33 0f 98 6e     . N......3333..n
     13a:	12 83 11 41 ef 8d 21 14 89 3b e6 55 16 cf fe e6     ...A..!..;.U....
     14a:	db 18 d1 84 4b 38 1b f7 7c 1d 90 1d a4 bb e4 24     ....K8..|......$
     15a:	20 32 84 72 5e 22 81 00 c9 f1 24 ec a1 e5 3d 27      2.r^"....$...='

0000016a <__c.2508>:
     16a:	63 64 69 6e 6f 70 73 75 78 58 5b 65 66 67 45 46     cdinopsuxX[efgEF
     17a:	47 00                                               G.

0000017c <pstr_an>:
     17c:	61 6e 00                                            an.

0000017f <pstr_nfinity>:
     17f:	6e 66 69 6e 69 74 79 00                             nfinity.

00000187 <pwr_m10>:
     187:	cd cc cc 3d 0a d7 23 3c 17 b7 d1 38 77 cc 2b 32     ...=..#<...8w.+2
     197:	95 95 e6 24 1f b1 4f 0a                             ...$..O.

0000019f <pwr_p10>:
     19f:	00 00 20 41 00 00 c8 42 00 40 1c 46 20 bc be 4c     .. A...B.@.F ..L
     1af:	ca 1b 0e 5a ae c5 9d 74 00                          ...Z...t.

000001b8 <__ctors_end>:
     1b8:	11 24       	eor	r1, r1
     1ba:	1f be       	out	0x3f, r1	; 63
     1bc:	cf ef       	ldi	r28, 0xFF	; 255
     1be:	d8 e0       	ldi	r29, 0x08	; 8
     1c0:	de bf       	out	0x3e, r29	; 62
     1c2:	cd bf       	out	0x3d, r28	; 61
     1c4:	0e 94 23 01 	call	0x246	; 0x246 <main>
     1c8:	0c 94 60 0c 	jmp	0x18c0	; 0x18c0 <_exit>

000001cc <__bad_interrupt>:
     1cc:	0c 94 00 00 	jmp	0	; 0x0 <__vectors>

000001d0 <binary_to_gray>:

#define DEBOUNCE 30

uint8_t binary_to_gray(uint8_t n)
{
    return n ^ (n >> 1);
     1d0:	98 2f       	mov	r25, r24
     1d2:	96 95       	lsr	r25

000001d4 <.Loc.3>:
}
     1d4:	89 27       	eor	r24, r25

000001d6 <.LVL1>:
     1d6:	08 95       	ret

000001d8 <debounce>:

uint8_t debounce(uint8_t pin)
{
    if (!(PINC & (1 << pin)))
     1d8:	26 b1       	in	r18, 0x06	; 6
     1da:	30 e0       	ldi	r19, 0x00	; 0

000001dc <.Loc.8>:
     1dc:	08 2e       	mov	r0, r24
     1de:	02 c0       	rjmp	.+4      	; 0x1e4 <.L2^B1>

000001e0 <.L1^B1>:
     1e0:	35 95       	asr	r19
     1e2:	27 95       	ror	r18

000001e4 <.L2^B1>:
     1e4:	0a 94       	dec	r0
     1e6:	e2 f7       	brpl	.-8      	; 0x1e0 <.L1^B1>

000001e8 <.Loc.9>:
     1e8:	20 fd       	sbrc	r18, 0
     1ea:	13 c0       	rjmp	.+38     	; 0x212 <.L6>

000001ec <.LBB34>:
	#else
		//round up by default
		__ticks_dc = (uint32_t)(ceil(fabs(__tmp)));
	#endif

	__builtin_avr_delay_cycles(__ticks_dc);
     1ec:	2f ef       	ldi	r18, 0xFF	; 255
     1ee:	36 e7       	ldi	r19, 0x76	; 118
     1f0:	91 e0       	ldi	r25, 0x01	; 1

000001f2 <.L1^B2>:
     1f2:	21 50       	subi	r18, 0x01	; 1
     1f4:	30 40       	sbci	r19, 0x00	; 0
     1f6:	90 40       	sbci	r25, 0x00	; 0
     1f8:	e1 f7       	brne	.-8      	; 0x1f2 <.L1^B2>
     1fa:	00 c0       	rjmp	.+0      	; 0x1fc <L0^A>

000001fc <L0^A>:
	...

000001fe <.LBE37>:
    {                             // Przycisk wciśnięty
        _delay_ms(DEBOUNCE);            // Odczekaj na ustabilizowanie
        if (!(PINC & (1 << pin))) // Ponowne sprawdzenie
     1fe:	26 b1       	in	r18, 0x06	; 6
     200:	30 e0       	ldi	r19, 0x00	; 0

00000202 <.Loc.23>:
     202:	08 2e       	mov	r0, r24
     204:	02 c0       	rjmp	.+4      	; 0x20a <.L2^B2>

00000206 <.L1^B3>:
     206:	35 95       	asr	r19
     208:	27 95       	ror	r18

0000020a <.L2^B2>:
     20a:	0a 94       	dec	r0
     20c:	e2 f7       	brpl	.-8      	; 0x206 <.L1^B3>

0000020e <.Loc.24>:
     20e:	20 ff       	sbrs	r18, 0
     210:	02 c0       	rjmp	.+4      	; 0x216 <.L10>

00000212 <.L6>:
            while (!(PINC & (1 << pin))); // Czekaj na puszczenie
            _delay_ms(DEBOUNCE); // Debounce na puszczenie
            return 1;
        }
    }
    return 0;
     212:	80 e0       	ldi	r24, 0x00	; 0

00000214 <.LVL5>:
     214:	08 95       	ret

00000216 <.L10>:
     216:	21 e0       	ldi	r18, 0x01	; 1
     218:	30 e0       	ldi	r19, 0x00	; 0
     21a:	02 c0       	rjmp	.+4      	; 0x220 <.L2^B3>

0000021c <.L1^B4>:
     21c:	22 0f       	add	r18, r18
     21e:	33 1f       	adc	r19, r19

00000220 <.L2^B3>:
     220:	8a 95       	dec	r24
     222:	e2 f7       	brpl	.-8      	; 0x21c <.L1^B4>

00000224 <.L7>:
            while (!(PINC & (1 << pin))); // Czekaj na puszczenie
     224:	86 b1       	in	r24, 0x06	; 6
     226:	90 e0       	ldi	r25, 0x00	; 0

00000228 <.Loc.31>:
     228:	82 23       	and	r24, r18
     22a:	93 23       	and	r25, r19
     22c:	89 2b       	or	r24, r25
     22e:	d1 f3       	breq	.-12     	; 0x224 <.L7>

00000230 <.LBB38>:
     230:	2f ef       	ldi	r18, 0xFF	; 255
     232:	36 e7       	ldi	r19, 0x76	; 118
     234:	81 e0       	ldi	r24, 0x01	; 1

00000236 <.L1^B5>:
     236:	21 50       	subi	r18, 0x01	; 1
     238:	30 40       	sbci	r19, 0x00	; 0
     23a:	80 40       	sbci	r24, 0x00	; 0
     23c:	e1 f7       	brne	.-8      	; 0x236 <.L1^B5>
     23e:	00 c0       	rjmp	.+0      	; 0x240 <L0^A>

00000240 <L0^A>:
	...

00000242 <.LBE41>:
            return 1;
     242:	81 e0       	ldi	r24, 0x01	; 1

00000244 <.Loc.45>:
}
     244:	08 95       	ret

00000246 <main>:

int main(void)
{
    DDRD = 0xFF;  // PORTD jako wyjście
     246:	8f ef       	ldi	r24, 0xFF	; 255
     248:	8a b9       	out	0x0a, r24	; 10

0000024a <.Loc.49>:
    DDRC = 0x00;  // PORTB jako wejście
     24a:	17 b8       	out	0x07, r1	; 7

0000024c <.Loc.51>:
    PORTC = 0x07; // pull-up na PC0-PC2
     24c:	87 e0       	ldi	r24, 0x07	; 7
     24e:	88 b9       	out	0x08, r24	; 8

00000250 <.LVL10>:

    uint8_t counter = 0;
     250:	90 e0       	ldi	r25, 0x00	; 0
     252:	1e c0       	rjmp	.+60     	; 0x290 <.L18>

00000254 <.L12>:
    if (!(PINC & (1 << pin)))
     254:	31 99       	sbic	0x06, 1	; 6
     256:	0b c0       	rjmp	.+22     	; 0x26e <.L14>

00000258 <.LBB44>:
     258:	8f ef       	ldi	r24, 0xFF	; 255
     25a:	26 e7       	ldi	r18, 0x76	; 118
     25c:	31 e0       	ldi	r19, 0x01	; 1

0000025e <.L1^B6>:
     25e:	81 50       	subi	r24, 0x01	; 1
     260:	20 40       	sbci	r18, 0x00	; 0
     262:	30 40       	sbci	r19, 0x00	; 0
     264:	e1 f7       	brne	.-8      	; 0x25e <.L1^B6>
     266:	00 c0       	rjmp	.+0      	; 0x268 <L0^A>

00000268 <L0^A>:
	...

0000026a <.LBE47>:
        if (!(PINC & (1 << pin))) // Ponowne sprawdzenie
     26a:	31 9b       	sbis	0x06, 1	; 6
     26c:	38 c0       	rjmp	.+112    	; 0x2de <.L15>

0000026e <.L14>:
    if (!(PINC & (1 << pin)))
     26e:	32 99       	sbic	0x06, 2	; 6
     270:	0b c0       	rjmp	.+22     	; 0x288 <.L16>

00000272 <.LBB58>:
     272:	8f ef       	ldi	r24, 0xFF	; 255
     274:	26 e7       	ldi	r18, 0x76	; 118
     276:	31 e0       	ldi	r19, 0x01	; 1

00000278 <.L1^B7>:
     278:	81 50       	subi	r24, 0x01	; 1
     27a:	20 40       	sbci	r18, 0x00	; 0
     27c:	30 40       	sbci	r19, 0x00	; 0
     27e:	e1 f7       	brne	.-8      	; 0x278 <.L1^B7>
     280:	00 c0       	rjmp	.+0      	; 0x282 <L0^A>

00000282 <L0^A>:
	...

00000284 <.LBE61>:
        if (!(PINC & (1 << pin))) // Ponowne sprawdzenie
     284:	32 9b       	sbis	0x06, 2	; 6
     286:	1e c0       	rjmp	.+60     	; 0x2c4 <.L17>

00000288 <.L16>:
    return n ^ (n >> 1);
     288:	89 2f       	mov	r24, r25
     28a:	86 95       	lsr	r24
     28c:	89 27       	eor	r24, r25

0000028e <.LBE70>:
        if (debounce(BTN_NEXT))
            counter++;
        if (debounce(BTN_PREV))
            counter--;

        PORTD = binary_to_gray(counter);
     28e:	8b b9       	out	0x0b, r24	; 11

00000290 <.L18>:
    if (!(PINC & (1 << pin)))
     290:	30 99       	sbic	0x06, 0	; 6
     292:	e0 cf       	rjmp	.-64     	; 0x254 <.L12>

00000294 <.LBB74>:
     294:	2f ef       	ldi	r18, 0xFF	; 255
     296:	36 e7       	ldi	r19, 0x76	; 118
     298:	81 e0       	ldi	r24, 0x01	; 1

0000029a <.L1^B8>:
     29a:	21 50       	subi	r18, 0x01	; 1
     29c:	30 40       	sbci	r19, 0x00	; 0
     29e:	80 40       	sbci	r24, 0x00	; 0
     2a0:	e1 f7       	brne	.-8      	; 0x29a <.L1^B8>
     2a2:	00 c0       	rjmp	.+0      	; 0x2a4 <L0^A>

000002a4 <L0^A>:
	...

000002a6 <.LBE77>:
        if (!(PINC & (1 << pin))) // Ponowne sprawdzenie
     2a6:	30 99       	sbic	0x06, 0	; 6
     2a8:	d5 cf       	rjmp	.-86     	; 0x254 <.L12>

000002aa <.L13>:
            while (!(PINC & (1 << pin))); // Czekaj na puszczenie
     2aa:	30 9b       	sbis	0x06, 0	; 6
     2ac:	fe cf       	rjmp	.-4      	; 0x2aa <.L13>

000002ae <.LBB78>:
     2ae:	9f ef       	ldi	r25, 0xFF	; 255
     2b0:	26 e7       	ldi	r18, 0x76	; 118
     2b2:	31 e0       	ldi	r19, 0x01	; 1

000002b4 <.L1^B9>:
     2b4:	91 50       	subi	r25, 0x01	; 1
     2b6:	20 40       	sbci	r18, 0x00	; 0
     2b8:	30 40       	sbci	r19, 0x00	; 0
     2ba:	e1 f7       	brne	.-8      	; 0x2b4 <.L1^B9>

000002bc <.LVL23>:
     2bc:	00 c0       	rjmp	.+0      	; 0x2be <L0^A>

000002be <L0^A>:
	...

000002c0 <.LBE81>:
            counter = 0;
     2c0:	90 e0       	ldi	r25, 0x00	; 0
     2c2:	c8 cf       	rjmp	.-112    	; 0x254 <.L12>

000002c4 <.L17>:
            while (!(PINC & (1 << pin))); // Czekaj na puszczenie
     2c4:	32 9b       	sbis	0x06, 2	; 6
     2c6:	fe cf       	rjmp	.-4      	; 0x2c4 <.L17>

000002c8 <.LBB62>:
     2c8:	8f ef       	ldi	r24, 0xFF	; 255
     2ca:	26 e7       	ldi	r18, 0x76	; 118
     2cc:	31 e0       	ldi	r19, 0x01	; 1

000002ce <.L1^B10>:
     2ce:	81 50       	subi	r24, 0x01	; 1
     2d0:	20 40       	sbci	r18, 0x00	; 0
     2d2:	30 40       	sbci	r19, 0x00	; 0
     2d4:	e1 f7       	brne	.-8      	; 0x2ce <.L1^B10>
     2d6:	00 c0       	rjmp	.+0      	; 0x2d8 <L0^A>

000002d8 <L0^A>:
	...

000002da <.LBE65>:
            counter--;
     2da:	91 50       	subi	r25, 0x01	; 1

000002dc <.Loc.150>:
     2dc:	d5 cf       	rjmp	.-86     	; 0x288 <.L16>

000002de <.L15>:
            while (!(PINC & (1 << pin))); // Czekaj na puszczenie
     2de:	31 9b       	sbis	0x06, 1	; 6
     2e0:	fe cf       	rjmp	.-4      	; 0x2de <.L15>

000002e2 <.LBB48>:
     2e2:	8f ef       	ldi	r24, 0xFF	; 255
     2e4:	26 e7       	ldi	r18, 0x76	; 118
     2e6:	31 e0       	ldi	r19, 0x01	; 1

000002e8 <.L1^B11>:
     2e8:	81 50       	subi	r24, 0x01	; 1
     2ea:	20 40       	sbci	r18, 0x00	; 0
     2ec:	30 40       	sbci	r19, 0x00	; 0
     2ee:	e1 f7       	brne	.-8      	; 0x2e8 <.L1^B11>
     2f0:	00 c0       	rjmp	.+0      	; 0x2f2 <L0^A>

000002f2 <L0^A>:
	...

000002f4 <.LBE51>:
            counter++;
     2f4:	9f 5f       	subi	r25, 0xFF	; 255

000002f6 <.Loc.168>:
     2f6:	bb cf       	rjmp	.-138    	; 0x26e <.L14>

000002f8 <vfprintf>:
     2f8:	a5 e1       	ldi	r26, 0x15	; 21
     2fa:	b0 e0       	ldi	r27, 0x00	; 0
     2fc:	e2 e8       	ldi	r30, 0x82	; 130
     2fe:	f1 e0       	ldi	r31, 0x01	; 1
     300:	0c 94 38 0a 	jmp	0x1470	; 0x1470 <__prologue_saves__>

00000304 <.L1^B1>:
     304:	7c 01       	movw	r14, r24
     306:	1b 01       	movw	r2, r22
     308:	5a 01       	movw	r10, r20
     30a:	dc 01       	movw	r26, r24
     30c:	17 96       	adiw	r26, 0x07	; 7
     30e:	1c 92       	st	X, r1
     310:	1e 92       	st	-X, r1
     312:	16 97       	sbiw	r26, 0x06	; 6
     314:	13 96       	adiw	r26, 0x03	; 3
     316:	8c 91       	ld	r24, X
     318:	81 ff       	sbrs	r24, 1
     31a:	68 c3       	rjmp	.+1744   	; 0x9ec <.L132>
     31c:	fe 01       	movw	r30, r28
     31e:	31 96       	adiw	r30, 0x01	; 1
     320:	4f 01       	movw	r8, r30

00000322 <.L3>:
     322:	d7 01       	movw	r26, r14
     324:	13 96       	adiw	r26, 0x03	; 3
     326:	9c 91       	ld	r25, X
     328:	f1 01       	movw	r30, r2
     32a:	93 fd       	sbrc	r25, 3
     32c:	85 91       	lpm	r24, Z+
     32e:	93 ff       	sbrs	r25, 3
     330:	81 91       	ld	r24, Z+
     332:	1f 01       	movw	r2, r30
     334:	88 23       	and	r24, r24
     336:	09 f4       	brne	.+2      	; 0x33a <L0^A+0x2>

00000338 <L0^A>:
     338:	ed c2       	rjmp	.+1498   	; 0x914 <.L4>
     33a:	85 32       	cpi	r24, 0x25	; 37
     33c:	39 f4       	brne	.+14     	; 0x34c <.L5>
     33e:	93 fd       	sbrc	r25, 3
     340:	85 91       	lpm	r24, Z+
     342:	93 ff       	sbrs	r25, 3
     344:	81 91       	ld	r24, Z+
     346:	1f 01       	movw	r2, r30
     348:	85 32       	cpi	r24, 0x25	; 37
     34a:	39 f4       	brne	.+14     	; 0x35a <.L133>

0000034c <.L5>:
     34c:	b7 01       	movw	r22, r14
     34e:	90 e0       	ldi	r25, 0x00	; 0
     350:	0e 94 b7 0b 	call	0x176e	; 0x176e <fputc>
     354:	65 01       	movw	r12, r10

00000356 <.L7>:
     356:	56 01       	movw	r10, r12
     358:	e4 cf       	rjmp	.-56     	; 0x322 <.L3>

0000035a <.L133>:
     35a:	10 e0       	ldi	r17, 0x00	; 0
     35c:	51 2c       	mov	r5, r1
     35e:	00 e0       	ldi	r16, 0x00	; 0

00000360 <.L6>:
     360:	00 32       	cpi	r16, 0x20	; 32
     362:	38 f4       	brcc	.+14     	; 0x372 <.L8>
     364:	8b 32       	cpi	r24, 0x2B	; 43
     366:	09 f1       	breq	.+66     	; 0x3aa <.L9>
     368:	90 f4       	brcc	.+36     	; 0x38e <.L10>
     36a:	80 32       	cpi	r24, 0x20	; 32
     36c:	f9 f0       	breq	.+62     	; 0x3ac <.L11>
     36e:	83 32       	cpi	r24, 0x23	; 35
     370:	09 f1       	breq	.+66     	; 0x3b4 <.L12>

00000372 <.L8>:
     372:	07 fd       	sbrc	r16, 7
     374:	34 c0       	rjmp	.+104    	; 0x3de <.L15>
     376:	20 ed       	ldi	r18, 0xD0	; 208
     378:	28 0f       	add	r18, r24
     37a:	2a 30       	cpi	r18, 0x0A	; 10
     37c:	20 f5       	brcc	.+72     	; 0x3c6 <.L16>
     37e:	06 ff       	sbrs	r16, 6
     380:	1b c0       	rjmp	.+54     	; 0x3b8 <.L17>
     382:	ba e0       	ldi	r27, 0x0A	; 10
     384:	1b 9f       	mul	r17, r27
     386:	20 0d       	add	r18, r0
     388:	11 24       	eor	r1, r1
     38a:	12 2f       	mov	r17, r18
     38c:	05 c0       	rjmp	.+10     	; 0x398 <.L14>

0000038e <.L10>:
     38e:	8d 32       	cpi	r24, 0x2D	; 45
     390:	79 f0       	breq	.+30     	; 0x3b0 <.L13>
     392:	80 33       	cpi	r24, 0x30	; 48
     394:	71 f7       	brne	.-36     	; 0x372 <.L8>
     396:	01 60       	ori	r16, 0x01	; 1

00000398 <.L14>:
     398:	f1 01       	movw	r30, r2
     39a:	93 fd       	sbrc	r25, 3
     39c:	85 91       	lpm	r24, Z+
     39e:	93 ff       	sbrs	r25, 3
     3a0:	81 91       	ld	r24, Z+
     3a2:	1f 01       	movw	r2, r30
     3a4:	81 11       	cpse	r24, r1
     3a6:	dc cf       	rjmp	.-72     	; 0x360 <.L6>
     3a8:	1a c0       	rjmp	.+52     	; 0x3de <.L15>

000003aa <.L9>:
     3aa:	02 60       	ori	r16, 0x02	; 2

000003ac <.L11>:
     3ac:	04 60       	ori	r16, 0x04	; 4
     3ae:	f4 cf       	rjmp	.-24     	; 0x398 <.L14>

000003b0 <.L13>:
     3b0:	08 60       	ori	r16, 0x08	; 8
     3b2:	f2 cf       	rjmp	.-28     	; 0x398 <.L14>

000003b4 <.L12>:
     3b4:	00 61       	ori	r16, 0x10	; 16
     3b6:	f0 cf       	rjmp	.-32     	; 0x398 <.L14>

000003b8 <.L17>:
     3b8:	ea e0       	ldi	r30, 0x0A	; 10
     3ba:	5e 9e       	mul	r5, r30
     3bc:	20 0d       	add	r18, r0
     3be:	11 24       	eor	r1, r1
     3c0:	52 2e       	mov	r5, r18
     3c2:	00 62       	ori	r16, 0x20	; 32
     3c4:	e9 cf       	rjmp	.-46     	; 0x398 <.L14>

000003c6 <.L16>:
     3c6:	8e 32       	cpi	r24, 0x2E	; 46
     3c8:	21 f4       	brne	.+8      	; 0x3d2 <.L18>
     3ca:	06 fd       	sbrc	r16, 6
     3cc:	a3 c2       	rjmp	.+1350   	; 0x914 <.L4>
     3ce:	00 64       	ori	r16, 0x40	; 64
     3d0:	e3 cf       	rjmp	.-58     	; 0x398 <.L14>

000003d2 <.L18>:
     3d2:	8c 36       	cpi	r24, 0x6C	; 108
     3d4:	11 f4       	brne	.+4      	; 0x3da <.L19>
     3d6:	00 68       	ori	r16, 0x80	; 128
     3d8:	df cf       	rjmp	.-66     	; 0x398 <.L14>

000003da <.L19>:
     3da:	88 36       	cpi	r24, 0x68	; 104
     3dc:	e9 f2       	breq	.-70     	; 0x398 <.L14>

000003de <.L15>:
     3de:	9b eb       	ldi	r25, 0xBB	; 187
     3e0:	98 0f       	add	r25, r24
     3e2:	93 30       	cpi	r25, 0x03	; 3
     3e4:	08 f0       	brcs	.+2      	; 0x3e8 <L0^A+0x2>

000003e6 <L0^A>:
     3e6:	73 c0       	rjmp	.+230    	; 0x4ce <.L20>
     3e8:	00 61       	ori	r16, 0x10	; 16
     3ea:	80 5e       	subi	r24, 0xE0	; 224

000003ec <.L21>:
     3ec:	06 ff       	sbrs	r16, 6
     3ee:	16 e0       	ldi	r17, 0x06	; 6
     3f0:	0f 73       	andi	r16, 0x3F	; 63
     3f2:	70 2e       	mov	r7, r16
     3f4:	85 36       	cpi	r24, 0x65	; 101
     3f6:	09 f0       	breq	.+2      	; 0x3fa <L0^A+0x2>

000003f8 <L0^A>:
     3f8:	71 c0       	rjmp	.+226    	; 0x4dc <.L24>
     3fa:	68 94       	set
     3fc:	76 f8       	bld	r7, 6

000003fe <.L25>:
     3fe:	77 fe       	sbrs	r7, 7
     400:	77 c0       	rjmp	.+238    	; 0x4f0 <.L27>
     402:	81 2f       	mov	r24, r17
     404:	1c 33       	cpi	r17, 0x3C	; 60
     406:	08 f0       	brcs	.+2      	; 0x40a <.L28>
     408:	8b e3       	ldi	r24, 0x3B	; 59

0000040a <.L28>:
     40a:	44 24       	eor	r4, r4
     40c:	43 94       	inc	r4
     40e:	48 0e       	add	r4, r24
     410:	27 e0       	ldi	r18, 0x07	; 7

00000412 <.L29>:
     412:	d5 01       	movw	r26, r10
     414:	4d 91       	ld	r20, X+
     416:	5d 91       	ld	r21, X+
     418:	6d 91       	ld	r22, X+
     41a:	7d 91       	ld	r23, X+
     41c:	6d 01       	movw	r12, r26
     41e:	4c 87       	std	Y+12, r20	; 0x0c
     420:	5d 87       	std	Y+13, r21	; 0x0d
     422:	6e 87       	std	Y+14, r22	; 0x0e
     424:	7f 87       	std	Y+15, r23	; 0x0f
     426:	04 2d       	mov	r16, r4
     428:	a4 01       	movw	r20, r8
     42a:	6c 85       	ldd	r22, Y+12	; 0x0c
     42c:	7d 85       	ldd	r23, Y+13	; 0x0d
     42e:	8e 85       	ldd	r24, Y+14	; 0x0e
     430:	9f 85       	ldd	r25, Y+15	; 0x0f
     432:	0e 94 6f 0a 	call	0x14de	; 0x14de <__ftoa_engine>
     436:	5c 01       	movw	r10, r24
     438:	b9 81       	ldd	r27, Y+1	; 0x01
     43a:	bc 87       	std	Y+12, r27	; 0x0c
     43c:	b0 ff       	sbrs	r27, 0
     43e:	04 c0       	rjmp	.+8      	; 0x448 <.L30>
     440:	6d e2       	ldi	r22, 0x2D	; 45
     442:	66 2e       	mov	r6, r22
     444:	b3 ff       	sbrs	r27, 3
     446:	0b c0       	rjmp	.+22     	; 0x45e <.L31>

00000448 <.L30>:
     448:	5b e2       	ldi	r21, 0x2B	; 43
     44a:	65 2e       	mov	r6, r21
     44c:	71 fc       	sbrc	r7, 1
     44e:	07 c0       	rjmp	.+14     	; 0x45e <.L31>
     450:	e7 2d       	mov	r30, r7
     452:	e4 70       	andi	r30, 0x04	; 4
     454:	6e 2e       	mov	r6, r30
     456:	72 fe       	sbrs	r7, 2
     458:	02 c0       	rjmp	.+4      	; 0x45e <.L31>
     45a:	70 e2       	ldi	r23, 0x20	; 32
     45c:	67 2e       	mov	r6, r23

0000045e <.L31>:
     45e:	0c 85       	ldd	r16, Y+12	; 0x0c
     460:	0c 70       	andi	r16, 0x0C	; 12
     462:	09 f4       	brne	.+2      	; 0x466 <L0^A+0x2>

00000464 <L0^A>:
     464:	56 c0       	rjmp	.+172    	; 0x512 <.L32>
     466:	61 10       	cpse	r6, r1
     468:	c4 c2       	rjmp	.+1416   	; 0x9f2 <.L33>
     46a:	f3 e0       	ldi	r31, 0x03	; 3
     46c:	00 e0       	ldi	r16, 0x00	; 0
     46e:	f5 15       	cp	r31, r5
     470:	98 f4       	brcc	.+38     	; 0x498 <.L37>
     472:	83 e0       	ldi	r24, 0x03	; 3

00000474 <.L130>:
     474:	05 2d       	mov	r16, r5
     476:	08 1b       	sub	r16, r24
     478:	73 fc       	sbrc	r7, 3
     47a:	07 c0       	rjmp	.+14     	; 0x48a <.L35>

0000047c <.L36>:
     47c:	b7 01       	movw	r22, r14
     47e:	80 e2       	ldi	r24, 0x20	; 32
     480:	90 e0       	ldi	r25, 0x00	; 0
     482:	0e 94 b7 0b 	call	0x176e	; 0x176e <fputc>
     486:	01 50       	subi	r16, 0x01	; 1
     488:	c9 f7       	brne	.-14     	; 0x47c <.L36>

0000048a <.L35>:
     48a:	66 20       	and	r6, r6
     48c:	29 f0       	breq	.+10     	; 0x498 <.L37>

0000048e <.L131>:
     48e:	b7 01       	movw	r22, r14
     490:	86 2d       	mov	r24, r6
     492:	90 e0       	ldi	r25, 0x00	; 0
     494:	0e 94 b7 0b 	call	0x176e	; 0x176e <fputc>

00000498 <.L37>:
     498:	fc 85       	ldd	r31, Y+12	; 0x0c
     49a:	48 e6       	ldi	r20, 0x68	; 104
     49c:	a4 2e       	mov	r10, r20
     49e:	40 e0       	ldi	r20, 0x00	; 0
     4a0:	b4 2e       	mov	r11, r20
     4a2:	f3 fd       	sbrc	r31, 3
     4a4:	04 c0       	rjmp	.+8      	; 0x4ae <.L38>
     4a6:	3c e6       	ldi	r19, 0x6C	; 108
     4a8:	a3 2e       	mov	r10, r19
     4aa:	30 e0       	ldi	r19, 0x00	; 0
     4ac:	b3 2e       	mov	r11, r19

000004ae <.L38>:
     4ae:	17 2d       	mov	r17, r7
     4b0:	10 71       	andi	r17, 0x10	; 16

000004b2 <.L39>:
     4b2:	f5 01       	movw	r30, r10
     4b4:	84 91       	lpm	r24, Z
     4b6:	81 11       	cpse	r24, r1
     4b8:	22 c0       	rjmp	.+68     	; 0x4fe <.L41>

000004ba <.L73>:
     4ba:	00 23       	and	r16, r16
     4bc:	09 f4       	brne	.+2      	; 0x4c0 <L0^A+0x2>

000004be <L0^A>:
     4be:	4b cf       	rjmp	.-362    	; 0x356 <.L7>
     4c0:	b7 01       	movw	r22, r14
     4c2:	80 e2       	ldi	r24, 0x20	; 32
     4c4:	90 e0       	ldi	r25, 0x00	; 0
     4c6:	0e 94 b7 0b 	call	0x176e	; 0x176e <fputc>
     4ca:	01 50       	subi	r16, 0x01	; 1
     4cc:	f6 cf       	rjmp	.-20     	; 0x4ba <.L73>

000004ce <.L20>:
     4ce:	9b e9       	ldi	r25, 0x9B	; 155
     4d0:	98 0f       	add	r25, r24
     4d2:	93 30       	cpi	r25, 0x03	; 3
     4d4:	08 f0       	brcs	.+2      	; 0x4d8 <L0^A+0x2>

000004d6 <L0^A>:
     4d6:	41 c1       	rjmp	.+642    	; 0x75a <.L22>
     4d8:	0f 7e       	andi	r16, 0xEF	; 239
     4da:	88 cf       	rjmp	.-240    	; 0x3ec <.L21>

000004dc <.L24>:
     4dc:	86 36       	cpi	r24, 0x66	; 102
     4de:	19 f4       	brne	.+6      	; 0x4e6 <.L26>
     4e0:	68 94       	set
     4e2:	77 f8       	bld	r7, 7
     4e4:	8c cf       	rjmp	.-232    	; 0x3fe <.L25>

000004e6 <.L26>:
     4e6:	11 23       	and	r17, r17
     4e8:	09 f4       	brne	.+2      	; 0x4ec <L0^A+0x2>

000004ea <L0^A>:
     4ea:	89 cf       	rjmp	.-238    	; 0x3fe <.L25>
     4ec:	11 50       	subi	r17, 0x01	; 1
     4ee:	87 cf       	rjmp	.-242    	; 0x3fe <.L25>

000004f0 <.L27>:
     4f0:	21 2f       	mov	r18, r17
     4f2:	18 30       	cpi	r17, 0x08	; 8
     4f4:	10 f0       	brcs	.+4      	; 0x4fa <.L234>
     4f6:	27 e0       	ldi	r18, 0x07	; 7
     4f8:	17 e0       	ldi	r17, 0x07	; 7

000004fa <.L234>:
     4fa:	41 2c       	mov	r4, r1
     4fc:	8a cf       	rjmp	.-236    	; 0x412 <.L29>

000004fe <.L41>:
     4fe:	11 11       	cpse	r17, r1
     500:	80 52       	subi	r24, 0x20	; 32
     502:	b7 01       	movw	r22, r14
     504:	90 e0       	ldi	r25, 0x00	; 0
     506:	0e 94 b7 0b 	call	0x176e	; 0x176e <fputc>
     50a:	2f ef       	ldi	r18, 0xFF	; 255
     50c:	a2 1a       	sub	r10, r18
     50e:	b2 0a       	sbc	r11, r18
     510:	d0 cf       	rjmp	.-96     	; 0x4b2 <.L39>

00000512 <.L32>:
     512:	77 fe       	sbrs	r7, 7
     514:	78 c0       	rjmp	.+240    	; 0x606 <.L43>
     516:	4a 0c       	add	r4, r10
     518:	fc 85       	ldd	r31, Y+12	; 0x0c
     51a:	f4 ff       	sbrs	r31, 4
     51c:	04 c0       	rjmp	.+8      	; 0x526 <.L44>
     51e:	8a 81       	ldd	r24, Y+2	; 0x02
     520:	81 33       	cpi	r24, 0x31	; 49
     522:	09 f4       	brne	.+2      	; 0x526 <.L44>
     524:	4a 94       	dec	r4

00000526 <.L44>:
     526:	14 14       	cp	r1, r4
     528:	0c f0       	brlt	.+2      	; 0x52c <L0^A+0x2>

0000052a <L0^A>:
     52a:	90 c0       	rjmp	.+288    	; 0x64c <.L138>
     52c:	28 e0       	ldi	r18, 0x08	; 8
     52e:	24 15       	cp	r18, r4
     530:	10 f4       	brcc	.+4      	; 0x536 <.L45>
     532:	28 e0       	ldi	r18, 0x08	; 8
     534:	42 2e       	mov	r4, r18

00000536 <.L45>:
     536:	85 e0       	ldi	r24, 0x05	; 5
     538:	90 e0       	ldi	r25, 0x00	; 0
     53a:	77 fe       	sbrs	r7, 7
     53c:	06 c0       	rjmp	.+12     	; 0x54a <.L51>
     53e:	c5 01       	movw	r24, r10
     540:	b7 fe       	sbrs	r11, 7
     542:	02 c0       	rjmp	.+4      	; 0x548 <.L52>
     544:	90 e0       	ldi	r25, 0x00	; 0
     546:	80 e0       	ldi	r24, 0x00	; 0

00000548 <.L52>:
     548:	01 96       	adiw	r24, 0x01	; 1

0000054a <.L51>:
     54a:	61 10       	cpse	r6, r1
     54c:	01 96       	adiw	r24, 0x01	; 1
     54e:	11 23       	and	r17, r17
     550:	31 f0       	breq	.+12     	; 0x55e <.L54>
     552:	21 2f       	mov	r18, r17
     554:	30 e0       	ldi	r19, 0x00	; 0
     556:	2f 5f       	subi	r18, 0xFF	; 255
     558:	3f 4f       	sbci	r19, 0xFF	; 255
     55a:	82 0f       	add	r24, r18
     55c:	93 1f       	adc	r25, r19

0000055e <.L54>:
     55e:	58 16       	cp	r5, r24
     560:	19 06       	cpc	r1, r25
     562:	19 f0       	breq	.+6      	; 0x56a <.L55>
     564:	14 f0       	brlt	.+4      	; 0x56a <.L55>
     566:	05 2d       	mov	r16, r5
     568:	08 1b       	sub	r16, r24

0000056a <.L55>:
     56a:	87 2d       	mov	r24, r7
     56c:	89 70       	andi	r24, 0x09	; 9
     56e:	11 f4       	brne	.+4      	; 0x574 <.L57>

00000570 <.L56>:
     570:	01 11       	cpse	r16, r1
     572:	71 c0       	rjmp	.+226    	; 0x656 <.L58>

00000574 <.L57>:
     574:	66 20       	and	r6, r6
     576:	29 f0       	breq	.+10     	; 0x582 <.L59>
     578:	b7 01       	movw	r22, r14
     57a:	86 2d       	mov	r24, r6
     57c:	90 e0       	ldi	r25, 0x00	; 0
     57e:	0e 94 b7 0b 	call	0x176e	; 0x176e <fputc>

00000582 <.L59>:
     582:	73 fc       	sbrc	r7, 3
     584:	02 c0       	rjmp	.+4      	; 0x58a <.L61>

00000586 <.L60>:
     586:	01 11       	cpse	r16, r1
     588:	6d c0       	rjmp	.+218    	; 0x664 <.L62>

0000058a <.L61>:
     58a:	77 fe       	sbrs	r7, 7
     58c:	98 c0       	rjmp	.+304    	; 0x6be <.L63>
     58e:	b9 8a       	std	Y+17, r11	; 0x11
     590:	a8 8a       	std	Y+16, r10	; 0x10
     592:	b7 fe       	sbrs	r11, 7
     594:	02 c0       	rjmp	.+4      	; 0x59a <.L64>
     596:	19 8a       	std	Y+17, r1	; 0x11
     598:	18 8a       	std	Y+16, r1	; 0x10

0000059a <.L64>:
     59a:	68 88       	ldd	r6, Y+16	; 0x10
     59c:	79 88       	ldd	r7, Y+17	; 0x11
     59e:	a5 01       	movw	r20, r10
     5a0:	44 19       	sub	r20, r4
     5a2:	51 09       	sbc	r21, r1
     5a4:	5d 8b       	std	Y+21, r21	; 0x15
     5a6:	4c 8b       	std	Y+20, r20	; 0x14
     5a8:	41 2e       	mov	r4, r17
     5aa:	51 2c       	mov	r5, r1
     5ac:	66 27       	eor	r22, r22
     5ae:	77 27       	eor	r23, r23
     5b0:	64 19       	sub	r22, r4
     5b2:	75 09       	sbc	r23, r5
     5b4:	7b 8b       	std	Y+19, r23	; 0x13
     5b6:	6a 8b       	std	Y+18, r22	; 0x12

000005b8 <.L65>:
     5b8:	a6 14       	cp	r10, r6
     5ba:	b7 04       	cpc	r11, r7
     5bc:	0c f4       	brge	.+2      	; 0x5c0 <L0^A+0x2>

000005be <L0^A>:
     5be:	59 c0       	rjmp	.+178    	; 0x672 <.L142>
     5c0:	8c 89       	ldd	r24, Y+20	; 0x14
     5c2:	9d 89       	ldd	r25, Y+21	; 0x15
     5c4:	86 15       	cp	r24, r6
     5c6:	97 05       	cpc	r25, r7
     5c8:	0c f0       	brlt	.+2      	; 0x5cc <L0^A+0x2>

000005ca <L0^A>:
     5ca:	53 c0       	rjmp	.+166    	; 0x672 <.L142>
     5cc:	f5 01       	movw	r30, r10
     5ce:	e6 19       	sub	r30, r6
     5d0:	f7 09       	sbc	r31, r7
     5d2:	e8 0d       	add	r30, r8
     5d4:	f9 1d       	adc	r31, r9
     5d6:	81 81       	ldd	r24, Z+1	; 0x01

000005d8 <.L66>:
     5d8:	91 e0       	ldi	r25, 0x01	; 1
     5da:	69 1a       	sub	r6, r25
     5dc:	71 08       	sbc	r7, r1
     5de:	aa 89       	ldd	r26, Y+18	; 0x12
     5e0:	bb 89       	ldd	r27, Y+19	; 0x13
     5e2:	6a 16       	cp	r6, r26
     5e4:	7b 06       	cpc	r7, r27
     5e6:	0c f4       	brge	.+2      	; 0x5ea <L0^A+0x2>

000005e8 <L0^A>:
     5e8:	46 c0       	rjmp	.+140    	; 0x676 <.L67>
     5ea:	b7 01       	movw	r22, r14
     5ec:	90 e0       	ldi	r25, 0x00	; 0
     5ee:	0e 94 b7 0b 	call	0x176e	; 0x176e <fputc>
     5f2:	bf ef       	ldi	r27, 0xFF	; 255
     5f4:	6b 16       	cp	r6, r27
     5f6:	7b 06       	cpc	r7, r27
     5f8:	f9 f6       	brne	.-66     	; 0x5b8 <.L65>
     5fa:	b7 01       	movw	r22, r14
     5fc:	8e e2       	ldi	r24, 0x2E	; 46
     5fe:	90 e0       	ldi	r25, 0x00	; 0
     600:	0e 94 b7 0b 	call	0x176e	; 0x176e <fputc>
     604:	d9 cf       	rjmp	.-78     	; 0x5b8 <.L65>

00000606 <.L43>:
     606:	76 fc       	sbrc	r7, 6
     608:	96 cf       	rjmp	.-212    	; 0x536 <.L45>
     60a:	e1 2f       	mov	r30, r17
     60c:	f0 e0       	ldi	r31, 0x00	; 0
     60e:	ea 15       	cp	r30, r10
     610:	fb 05       	cpc	r31, r11
     612:	3c f0       	brlt	.+14     	; 0x622 <.L47>
     614:	3c ef       	ldi	r19, 0xFC	; 252
     616:	a3 16       	cp	r10, r19
     618:	3f ef       	ldi	r19, 0xFF	; 255
     61a:	b3 06       	cpc	r11, r19
     61c:	14 f0       	brlt	.+4      	; 0x622 <.L47>
     61e:	68 94       	set
     620:	77 f8       	bld	r7, 7

00000622 <.L47>:
     622:	32 96       	adiw	r30, 0x02	; 2
     624:	e8 0d       	add	r30, r8
     626:	f9 1d       	adc	r31, r9
     628:	01 c0       	rjmp	.+2      	; 0x62c <.L48>

0000062a <.L50>:
     62a:	11 50       	subi	r17, 0x01	; 1

0000062c <.L48>:
     62c:	11 23       	and	r17, r17
     62e:	19 f0       	breq	.+6      	; 0x636 <.L49>
     630:	82 91       	ld	r24, -Z
     632:	80 33       	cpi	r24, 0x30	; 48
     634:	d1 f3       	breq	.-12     	; 0x62a <.L50>

00000636 <.L49>:
     636:	77 fe       	sbrs	r7, 7
     638:	7e cf       	rjmp	.-260    	; 0x536 <.L45>
     63a:	44 24       	eor	r4, r4
     63c:	43 94       	inc	r4
     63e:	41 0e       	add	r4, r17
     640:	1a 15       	cp	r17, r10
     642:	1b 04       	cpc	r1, r11
     644:	31 f0       	breq	.+12     	; 0x652 <.L139>
     646:	2c f0       	brlt	.+10     	; 0x652 <.L139>
     648:	1a 19       	sub	r17, r10
     64a:	75 cf       	rjmp	.-278    	; 0x536 <.L45>

0000064c <.L138>:
     64c:	44 24       	eor	r4, r4
     64e:	43 94       	inc	r4
     650:	72 cf       	rjmp	.-284    	; 0x536 <.L45>

00000652 <.L139>:
     652:	10 e0       	ldi	r17, 0x00	; 0
     654:	70 cf       	rjmp	.-288    	; 0x536 <.L45>

00000656 <.L58>:
     656:	b7 01       	movw	r22, r14
     658:	80 e2       	ldi	r24, 0x20	; 32
     65a:	90 e0       	ldi	r25, 0x00	; 0
     65c:	0e 94 b7 0b 	call	0x176e	; 0x176e <fputc>
     660:	01 50       	subi	r16, 0x01	; 1
     662:	86 cf       	rjmp	.-244    	; 0x570 <.L56>

00000664 <.L62>:
     664:	b7 01       	movw	r22, r14
     666:	80 e3       	ldi	r24, 0x30	; 48
     668:	90 e0       	ldi	r25, 0x00	; 0
     66a:	0e 94 b7 0b 	call	0x176e	; 0x176e <fputc>
     66e:	01 50       	subi	r16, 0x01	; 1
     670:	8a cf       	rjmp	.-236    	; 0x586 <.L60>

00000672 <.L142>:
     672:	80 e3       	ldi	r24, 0x30	; 48
     674:	b1 cf       	rjmp	.-158    	; 0x5d8 <.L66>

00000676 <.L67>:
     676:	68 89       	ldd	r22, Y+16	; 0x10
     678:	79 89       	ldd	r23, Y+17	; 0x11
     67a:	61 50       	subi	r22, 0x01	; 1
     67c:	71 09       	sbc	r23, r1
     67e:	40 94       	com	r4
     680:	50 94       	com	r5
     682:	e8 89       	ldd	r30, Y+16	; 0x10
     684:	f9 89       	ldd	r31, Y+17	; 0x11
     686:	4e 16       	cp	r4, r30
     688:	5f 06       	cpc	r5, r31
     68a:	a4 f4       	brge	.+40     	; 0x6b4 <.L70>
     68c:	46 1a       	sub	r4, r22
     68e:	57 0a       	sbc	r5, r23

00000690 <.L71>:
     690:	46 0e       	add	r4, r22
     692:	57 1e       	adc	r5, r23
     694:	a4 14       	cp	r10, r4
     696:	b5 04       	cpc	r11, r5
     698:	41 f4       	brne	.+16     	; 0x6aa <.L72>
     69a:	9a 81       	ldd	r25, Y+2	; 0x02
     69c:	96 33       	cpi	r25, 0x36	; 54
     69e:	68 f4       	brcc	.+26     	; 0x6ba <.L144>
     6a0:	95 33       	cpi	r25, 0x35	; 53
     6a2:	19 f4       	brne	.+6      	; 0x6aa <.L72>
     6a4:	fc 85       	ldd	r31, Y+12	; 0x0c
     6a6:	f4 ff       	sbrs	r31, 4
     6a8:	08 c0       	rjmp	.+16     	; 0x6ba <.L144>

000006aa <.L72>:
     6aa:	b7 01       	movw	r22, r14
     6ac:	90 e0       	ldi	r25, 0x00	; 0

000006ae <.L238>:
     6ae:	0e 94 b7 0b 	call	0x176e	; 0x176e <fputc>
     6b2:	03 cf       	rjmp	.-506    	; 0x4ba <.L73>

000006b4 <.L70>:
     6b4:	51 2c       	mov	r5, r1
     6b6:	41 2c       	mov	r4, r1
     6b8:	eb cf       	rjmp	.-42     	; 0x690 <.L71>

000006ba <.L144>:
     6ba:	81 e3       	ldi	r24, 0x31	; 49
     6bc:	f6 cf       	rjmp	.-20     	; 0x6aa <.L72>

000006be <.L63>:
     6be:	8a 81       	ldd	r24, Y+2	; 0x02
     6c0:	81 33       	cpi	r24, 0x31	; 49
     6c2:	19 f0       	breq	.+6      	; 0x6ca <.L74>
     6c4:	2c 85       	ldd	r18, Y+12	; 0x0c
     6c6:	2f 7e       	andi	r18, 0xEF	; 239
     6c8:	2c 87       	std	Y+12, r18	; 0x0c

000006ca <.L74>:
     6ca:	b7 01       	movw	r22, r14
     6cc:	90 e0       	ldi	r25, 0x00	; 0
     6ce:	0e 94 b7 0b 	call	0x176e	; 0x176e <fputc>
     6d2:	11 23       	and	r17, r17
     6d4:	a9 f0       	breq	.+42     	; 0x700 <.L75>
     6d6:	b7 01       	movw	r22, r14
     6d8:	8e e2       	ldi	r24, 0x2E	; 46
     6da:	90 e0       	ldi	r25, 0x00	; 0
     6dc:	0e 94 b7 0b 	call	0x176e	; 0x176e <fputc>
     6e0:	92 e0       	ldi	r25, 0x02	; 2
     6e2:	69 2e       	mov	r6, r25
     6e4:	61 0e       	add	r6, r17
     6e6:	12 e0       	ldi	r17, 0x02	; 2

000006e8 <.L76>:
     6e8:	e1 2f       	mov	r30, r17
     6ea:	1f 5f       	subi	r17, 0xFF	; 255
     6ec:	e8 0d       	add	r30, r8
     6ee:	f9 2d       	mov	r31, r9
     6f0:	f1 1d       	adc	r31, r1
     6f2:	80 81       	ld	r24, Z
     6f4:	b7 01       	movw	r22, r14
     6f6:	90 e0       	ldi	r25, 0x00	; 0
     6f8:	0e 94 b7 0b 	call	0x176e	; 0x176e <fputc>
     6fc:	61 12       	cpse	r6, r17
     6fe:	f4 cf       	rjmp	.-24     	; 0x6e8 <.L76>

00000700 <.L75>:
     700:	85 e6       	ldi	r24, 0x65	; 101
     702:	90 e0       	ldi	r25, 0x00	; 0
     704:	74 fe       	sbrs	r7, 4
     706:	02 c0       	rjmp	.+4      	; 0x70c <.L77>
     708:	85 e4       	ldi	r24, 0x45	; 69
     70a:	90 e0       	ldi	r25, 0x00	; 0

0000070c <.L77>:
     70c:	b7 01       	movw	r22, r14
     70e:	0e 94 b7 0b 	call	0x176e	; 0x176e <fputc>
     712:	b7 fc       	sbrc	r11, 7
     714:	06 c0       	rjmp	.+12     	; 0x722 <.L78>
     716:	a1 14       	cp	r10, r1
     718:	b1 04       	cpc	r11, r1
     71a:	c1 f4       	brne	.+48     	; 0x74c <.L147>
     71c:	3c 85       	ldd	r19, Y+12	; 0x0c
     71e:	34 ff       	sbrs	r19, 4
     720:	15 c0       	rjmp	.+42     	; 0x74c <.L147>

00000722 <.L78>:
     722:	b1 94       	neg	r11
     724:	a1 94       	neg	r10
     726:	b1 08       	sbc	r11, r1
     728:	8d e2       	ldi	r24, 0x2D	; 45

0000072a <.L79>:
     72a:	b7 01       	movw	r22, r14
     72c:	90 e0       	ldi	r25, 0x00	; 0
     72e:	0e 94 b7 0b 	call	0x176e	; 0x176e <fputc>
     732:	80 e3       	ldi	r24, 0x30	; 48

00000734 <.L80>:
     734:	5a e0       	ldi	r21, 0x0A	; 10
     736:	a5 16       	cp	r10, r21
     738:	b1 04       	cpc	r11, r1
     73a:	54 f4       	brge	.+20     	; 0x750 <.L81>
     73c:	b7 01       	movw	r22, r14
     73e:	90 e0       	ldi	r25, 0x00	; 0
     740:	0e 94 b7 0b 	call	0x176e	; 0x176e <fputc>
     744:	b7 01       	movw	r22, r14
     746:	c5 01       	movw	r24, r10
     748:	c0 96       	adiw	r24, 0x30	; 48
     74a:	b1 cf       	rjmp	.-158    	; 0x6ae <.L238>

0000074c <.L147>:
     74c:	8b e2       	ldi	r24, 0x2B	; 43
     74e:	ed cf       	rjmp	.-38     	; 0x72a <.L79>

00000750 <.L81>:
     750:	8f 5f       	subi	r24, 0xFF	; 255
     752:	4a e0       	ldi	r20, 0x0A	; 10
     754:	a4 1a       	sub	r10, r20
     756:	b1 08       	sbc	r11, r1
     758:	ed cf       	rjmp	.-38     	; 0x734 <.L80>

0000075a <.L22>:
     75a:	83 36       	cpi	r24, 0x63	; 99
     75c:	b9 f0       	breq	.+46     	; 0x78c <.L82>
     75e:	83 37       	cpi	r24, 0x73	; 115
     760:	09 f4       	brne	.+2      	; 0x764 <L0^A+0x2>

00000762 <L0^A>:
     762:	3c c0       	rjmp	.+120    	; 0x7dc <.L83>
     764:	83 35       	cpi	r24, 0x53	; 83
     766:	09 f0       	breq	.+2      	; 0x76a <L0^A+0x2>

00000768 <L0^A>:
     768:	4f c0       	rjmp	.+158    	; 0x808 <.L233>
     76a:	d5 01       	movw	r26, r10
     76c:	ad 90       	ld	r10, X+
     76e:	bd 90       	ld	r11, X+
     770:	6d 01       	movw	r12, r26
     772:	61 2f       	mov	r22, r17
     774:	70 e0       	ldi	r23, 0x00	; 0
     776:	06 fd       	sbrc	r16, 6
     778:	02 c0       	rjmp	.+4      	; 0x77e <.L89>
     77a:	6f ef       	ldi	r22, 0xFF	; 255
     77c:	7f ef       	ldi	r23, 0xFF	; 255

0000077e <.L89>:
     77e:	c5 01       	movw	r24, r10
     780:	0e 94 63 0b 	call	0x16c6	; 0x16c6 <strnlen_P>
     784:	3c 01       	movw	r6, r24
     786:	10 2f       	mov	r17, r16
     788:	10 68       	ori	r17, 0x80	; 128
     78a:	0d c0       	rjmp	.+26     	; 0x7a6 <.L88>

0000078c <.L82>:
     78c:	65 01       	movw	r12, r10
     78e:	62 e0       	ldi	r22, 0x02	; 2
     790:	c6 0e       	add	r12, r22
     792:	d1 1c       	adc	r13, r1
     794:	d5 01       	movw	r26, r10
     796:	8c 91       	ld	r24, X
     798:	89 83       	std	Y+1, r24	; 0x01
     79a:	66 24       	eor	r6, r6
     79c:	63 94       	inc	r6
     79e:	71 2c       	mov	r7, r1
     7a0:	54 01       	movw	r10, r8

000007a2 <.L86>:
     7a2:	10 2f       	mov	r17, r16
     7a4:	1f 77       	andi	r17, 0x7F	; 127

000007a6 <.L88>:
     7a6:	13 fd       	sbrc	r17, 3
     7a8:	04 c0       	rjmp	.+8      	; 0x7b2 <.L91>

000007aa <.L90>:
     7aa:	56 14       	cp	r5, r6
     7ac:	17 04       	cpc	r1, r7
     7ae:	09 f0       	breq	.+2      	; 0x7b2 <.L91>

000007b0 <L0^A>:
     7b0:	20 f5       	brcc	.+72     	; 0x7fa <.L92>

000007b2 <.L91>:
     7b2:	05 2d       	mov	r16, r5

000007b4 <.L93>:
     7b4:	61 14       	cp	r6, r1
     7b6:	71 04       	cpc	r7, r1
     7b8:	09 f4       	brne	.+2      	; 0x7bc <L0^A+0x2>

000007ba <L0^A>:
     7ba:	7f ce       	rjmp	.-770    	; 0x4ba <.L73>
     7bc:	f5 01       	movw	r30, r10
     7be:	17 fd       	sbrc	r17, 7
     7c0:	85 91       	lpm	r24, Z+
     7c2:	17 ff       	sbrs	r17, 7
     7c4:	81 91       	ld	r24, Z+
     7c6:	5f 01       	movw	r10, r30
     7c8:	b7 01       	movw	r22, r14
     7ca:	90 e0       	ldi	r25, 0x00	; 0
     7cc:	0e 94 b7 0b 	call	0x176e	; 0x176e <fputc>
     7d0:	01 11       	cpse	r16, r1
     7d2:	01 50       	subi	r16, 0x01	; 1
     7d4:	b1 e0       	ldi	r27, 0x01	; 1
     7d6:	6b 1a       	sub	r6, r27
     7d8:	71 08       	sbc	r7, r1
     7da:	ec cf       	rjmp	.-40     	; 0x7b4 <.L93>

000007dc <.L83>:
     7dc:	f5 01       	movw	r30, r10
     7de:	a1 90       	ld	r10, Z+
     7e0:	b1 90       	ld	r11, Z+
     7e2:	6f 01       	movw	r12, r30
     7e4:	61 2f       	mov	r22, r17
     7e6:	70 e0       	ldi	r23, 0x00	; 0
     7e8:	06 fd       	sbrc	r16, 6
     7ea:	02 c0       	rjmp	.+4      	; 0x7f0 <.L87>
     7ec:	6f ef       	ldi	r22, 0xFF	; 255
     7ee:	7f ef       	ldi	r23, 0xFF	; 255

000007f0 <.L87>:
     7f0:	c5 01       	movw	r24, r10
     7f2:	0e 94 6e 0b 	call	0x16dc	; 0x16dc <strnlen>
     7f6:	3c 01       	movw	r6, r24
     7f8:	d4 cf       	rjmp	.-88     	; 0x7a2 <.L86>

000007fa <.L92>:
     7fa:	b7 01       	movw	r22, r14
     7fc:	80 e2       	ldi	r24, 0x20	; 32
     7fe:	90 e0       	ldi	r25, 0x00	; 0
     800:	0e 94 b7 0b 	call	0x176e	; 0x176e <fputc>
     804:	5a 94       	dec	r5
     806:	d1 cf       	rjmp	.-94     	; 0x7aa <.L90>

00000808 <.L233>:
     808:	84 36       	cpi	r24, 0x64	; 100
     80a:	19 f0       	breq	.+6      	; 0x812 <.L96>
     80c:	89 36       	cpi	r24, 0x69	; 105
     80e:	09 f0       	breq	.+2      	; 0x812 <.L96>

00000810 <L0^A>:
     810:	70 c0       	rjmp	.+224    	; 0x8f2 <.L97>

00000812 <.L96>:
     812:	07 ff       	sbrs	r16, 7
     814:	65 c0       	rjmp	.+202    	; 0x8e0 <.L98>
     816:	f5 01       	movw	r30, r10
     818:	61 91       	ld	r22, Z+
     81a:	71 91       	ld	r23, Z+
     81c:	81 91       	ld	r24, Z+
     81e:	91 91       	ld	r25, Z+
     820:	6f 01       	movw	r12, r30

00000822 <.L99>:
     822:	0f 76       	andi	r16, 0x6F	; 111
     824:	97 ff       	sbrs	r25, 7
     826:	08 c0       	rjmp	.+16     	; 0x838 <.L100>
     828:	90 95       	com	r25
     82a:	80 95       	com	r24
     82c:	70 95       	com	r23
     82e:	61 95       	neg	r22
     830:	7f 4f       	sbci	r23, 0xFF	; 255
     832:	8f 4f       	sbci	r24, 0xFF	; 255
     834:	9f 4f       	sbci	r25, 0xFF	; 255
     836:	00 68       	ori	r16, 0x80	; 128

00000838 <.L100>:
     838:	2a e0       	ldi	r18, 0x0A	; 10
     83a:	30 e0       	ldi	r19, 0x00	; 0
     83c:	a4 01       	movw	r20, r8
     83e:	0e 94 ff 0b 	call	0x17fe	; 0x17fe <__ultoa_invert>
     842:	a8 2e       	mov	r10, r24
     844:	a8 18       	sub	r10, r8

00000846 <.L101>:
     846:	ba 2c       	mov	r11, r10
     848:	60 2e       	mov	r6, r16
     84a:	06 ff       	sbrs	r16, 6
     84c:	0b c0       	rjmp	.+22     	; 0x864 <.L110>
     84e:	e8 94       	clt
     850:	60 f8       	bld	r6, 0
     852:	a1 16       	cp	r10, r17
     854:	38 f4       	brcc	.+14     	; 0x864 <.L110>
     856:	04 ff       	sbrs	r16, 4
     858:	04 c0       	rjmp	.+8      	; 0x862 <.L156>
     85a:	02 fd       	sbrc	r16, 2
     85c:	02 c0       	rjmp	.+4      	; 0x862 <.L156>
     85e:	0e 7e       	andi	r16, 0xEE	; 238
     860:	60 2e       	mov	r6, r16

00000862 <.L156>:
     862:	b1 2e       	mov	r11, r17

00000864 <.L110>:
     864:	64 fe       	sbrs	r6, 4
     866:	9a c0       	rjmp	.+308    	; 0x99c <.L111>
     868:	fe 01       	movw	r30, r28
     86a:	ea 0d       	add	r30, r10
     86c:	f1 1d       	adc	r31, r1
     86e:	80 81       	ld	r24, Z
     870:	80 33       	cpi	r24, 0x30	; 48
     872:	09 f0       	breq	.+2      	; 0x876 <L0^A+0x2>

00000874 <L0^A>:
     874:	8c c0       	rjmp	.+280    	; 0x98e <.L112>
     876:	56 2d       	mov	r21, r6
     878:	59 7e       	andi	r21, 0xE9	; 233
     87a:	65 2e       	mov	r6, r21

0000087c <.L113>:
     87c:	06 2d       	mov	r16, r6
     87e:	08 70       	andi	r16, 0x08	; 8
     880:	63 fc       	sbrc	r6, 3
     882:	9b c0       	rjmp	.+310    	; 0x9ba <.L115>
     884:	60 fe       	sbrs	r6, 0
     886:	95 c0       	rjmp	.+298    	; 0x9b2 <.L116>
     888:	1a 2d       	mov	r17, r10
     88a:	b5 14       	cp	r11, r5
     88c:	10 f4       	brcc	.+4      	; 0x892 <.L117>
     88e:	15 0d       	add	r17, r5
     890:	1b 19       	sub	r17, r11

00000892 <.L117>:
     892:	64 fe       	sbrs	r6, 4
     894:	98 c0       	rjmp	.+304    	; 0x9c6 <.L119>
     896:	b7 01       	movw	r22, r14
     898:	80 e3       	ldi	r24, 0x30	; 48
     89a:	90 e0       	ldi	r25, 0x00	; 0
     89c:	0e 94 b7 0b 	call	0x176e	; 0x176e <fputc>
     8a0:	62 fe       	sbrs	r6, 2
     8a2:	09 c0       	rjmp	.+18     	; 0x8b6 <.L126>
     8a4:	88 e7       	ldi	r24, 0x78	; 120
     8a6:	90 e0       	ldi	r25, 0x00	; 0
     8a8:	61 fe       	sbrs	r6, 1
     8aa:	02 c0       	rjmp	.+4      	; 0x8b0 <.L122>
     8ac:	88 e5       	ldi	r24, 0x58	; 88
     8ae:	90 e0       	ldi	r25, 0x00	; 0

000008b0 <.L122>:
     8b0:	b7 01       	movw	r22, r14

000008b2 <.L237>:
     8b2:	0e 94 b7 0b 	call	0x176e	; 0x176e <fputc>

000008b6 <.L126>:
     8b6:	a1 16       	cp	r10, r17
     8b8:	08 f4       	brcc	.+2      	; 0x8bc <L0^A+0x2>

000008ba <L0^A>:
     8ba:	91 c0       	rjmp	.+290    	; 0x9de <.L127>
     8bc:	aa 94       	dec	r10
     8be:	b1 2c       	mov	r11, r1
     8c0:	6f ef       	ldi	r22, 0xFF	; 255
     8c2:	a6 1a       	sub	r10, r22
     8c4:	b6 0a       	sbc	r11, r22
     8c6:	a8 0c       	add	r10, r8
     8c8:	b9 1c       	adc	r11, r9

000008ca <.L128>:
     8ca:	d5 01       	movw	r26, r10
     8cc:	8e 91       	ld	r24, -X
     8ce:	5d 01       	movw	r10, r26
     8d0:	b7 01       	movw	r22, r14
     8d2:	90 e0       	ldi	r25, 0x00	; 0
     8d4:	0e 94 b7 0b 	call	0x176e	; 0x176e <fputc>
     8d8:	a8 14       	cp	r10, r8
     8da:	b9 04       	cpc	r11, r9
     8dc:	b1 f7       	brne	.-20     	; 0x8ca <.L128>
     8de:	ed cd       	rjmp	.-1062   	; 0x4ba <.L73>

000008e0 <.L98>:
     8e0:	d5 01       	movw	r26, r10
     8e2:	6d 91       	ld	r22, X+
     8e4:	7d 91       	ld	r23, X+
     8e6:	6d 01       	movw	r12, r26
     8e8:	07 2e       	mov	r0, r23
     8ea:	00 0c       	add	r0, r0
     8ec:	88 0b       	sbc	r24, r24
     8ee:	99 0b       	sbc	r25, r25
     8f0:	98 cf       	rjmp	.-208    	; 0x822 <.L99>

000008f2 <.L97>:
     8f2:	70 2e       	mov	r7, r16
     8f4:	e8 94       	clt
     8f6:	74 f8       	bld	r7, 4
     8f8:	2a e0       	ldi	r18, 0x0A	; 10
     8fa:	30 e0       	ldi	r19, 0x00	; 0
     8fc:	85 37       	cpi	r24, 0x75	; 117
     8fe:	39 f1       	breq	.+78     	; 0x94e <.L103>
     900:	b0 2f       	mov	r27, r16
     902:	b9 7f       	andi	r27, 0xF9	; 249
     904:	7b 2e       	mov	r7, r27
     906:	80 37       	cpi	r24, 0x70	; 112
     908:	a9 f0       	breq	.+42     	; 0x934 <.L104>
     90a:	58 f4       	brcc	.+22     	; 0x922 <.L105>
     90c:	88 35       	cpi	r24, 0x58	; 88
     90e:	a9 f0       	breq	.+42     	; 0x93a <.L106>
     910:	8f 36       	cpi	r24, 0x6F	; 111
     912:	d9 f0       	breq	.+54     	; 0x94a <.L150>

00000914 <.L4>:
     914:	f7 01       	movw	r30, r14
     916:	86 81       	ldd	r24, Z+6	; 0x06
     918:	97 81       	ldd	r25, Z+7	; 0x07

0000091a <.L1>:
     91a:	65 96       	adiw	r28, 0x15	; 21
     91c:	e2 e1       	ldi	r30, 0x12	; 18
     91e:	0c 94 54 0a 	jmp	0x14a8	; 0x14a8 <__epilogue_restores__>

00000922 <.L105>:
     922:	88 37       	cpi	r24, 0x78	; 120
     924:	b9 f7       	brne	.-18     	; 0x914 <.L4>

00000926 <.L107>:
     926:	74 fe       	sbrs	r7, 4
     928:	02 c0       	rjmp	.+4      	; 0x92e <.L151>
     92a:	68 94       	set
     92c:	72 f8       	bld	r7, 2

0000092e <.L151>:
     92e:	20 e1       	ldi	r18, 0x10	; 16
     930:	30 e0       	ldi	r19, 0x00	; 0
     932:	0d c0       	rjmp	.+26     	; 0x94e <.L103>

00000934 <.L104>:
     934:	68 94       	set
     936:	74 f8       	bld	r7, 4
     938:	f6 cf       	rjmp	.-20     	; 0x926 <.L107>

0000093a <.L106>:
     93a:	04 ff       	sbrs	r16, 4
     93c:	03 c0       	rjmp	.+6      	; 0x944 <.L152>
     93e:	eb 2f       	mov	r30, r27
     940:	e6 60       	ori	r30, 0x06	; 6
     942:	7e 2e       	mov	r7, r30

00000944 <.L152>:
     944:	20 e1       	ldi	r18, 0x10	; 16
     946:	32 e0       	ldi	r19, 0x02	; 2
     948:	02 c0       	rjmp	.+4      	; 0x94e <.L103>

0000094a <.L150>:
     94a:	28 e0       	ldi	r18, 0x08	; 8
     94c:	30 e0       	ldi	r19, 0x00	; 0

0000094e <.L103>:
     94e:	77 fe       	sbrs	r7, 7
     950:	16 c0       	rjmp	.+44     	; 0x97e <.L108>
     952:	d5 01       	movw	r26, r10
     954:	4d 91       	ld	r20, X+
     956:	5d 91       	ld	r21, X+
     958:	6d 91       	ld	r22, X+
     95a:	7d 91       	ld	r23, X+
     95c:	6d 01       	movw	r12, r26

0000095e <.L235>:
     95e:	4c 87       	std	Y+12, r20	; 0x0c
     960:	5d 87       	std	Y+13, r21	; 0x0d
     962:	6e 87       	std	Y+14, r22	; 0x0e
     964:	7f 87       	std	Y+15, r23	; 0x0f
     966:	a4 01       	movw	r20, r8
     968:	6c 85       	ldd	r22, Y+12	; 0x0c
     96a:	7d 85       	ldd	r23, Y+13	; 0x0d
     96c:	8e 85       	ldd	r24, Y+14	; 0x0e
     96e:	9f 85       	ldd	r25, Y+15	; 0x0f
     970:	0e 94 ff 0b 	call	0x17fe	; 0x17fe <__ultoa_invert>
     974:	a8 2e       	mov	r10, r24
     976:	a8 18       	sub	r10, r8
     978:	07 2d       	mov	r16, r7
     97a:	0f 77       	andi	r16, 0x7F	; 127
     97c:	64 cf       	rjmp	.-312    	; 0x846 <.L101>

0000097e <.L108>:
     97e:	f5 01       	movw	r30, r10
     980:	81 91       	ld	r24, Z+
     982:	91 91       	ld	r25, Z+
     984:	6f 01       	movw	r12, r30
     986:	ac 01       	movw	r20, r24
     988:	70 e0       	ldi	r23, 0x00	; 0
     98a:	60 e0       	ldi	r22, 0x00	; 0
     98c:	e8 cf       	rjmp	.-48     	; 0x95e <.L235>

0000098e <.L112>:
     98e:	62 fc       	sbrc	r6, 2
     990:	02 c0       	rjmp	.+4      	; 0x996 <.L114>

00000992 <.L236>:
     992:	b3 94       	inc	r11
     994:	73 cf       	rjmp	.-282    	; 0x87c <.L113>

00000996 <.L114>:
     996:	b3 94       	inc	r11
     998:	b3 94       	inc	r11
     99a:	70 cf       	rjmp	.-288    	; 0x87c <.L113>

0000099c <.L111>:
     99c:	86 2d       	mov	r24, r6
     99e:	86 78       	andi	r24, 0x86	; 134
     9a0:	09 f4       	brne	.+2      	; 0x9a4 <L0^A+0x2>

000009a2 <L0^A>:
     9a2:	6c cf       	rjmp	.-296    	; 0x87c <.L113>
     9a4:	f6 cf       	rjmp	.-20     	; 0x992 <.L236>

000009a6 <.L118>:
     9a6:	b7 01       	movw	r22, r14
     9a8:	80 e2       	ldi	r24, 0x20	; 32
     9aa:	90 e0       	ldi	r25, 0x00	; 0
     9ac:	0e 94 b7 0b 	call	0x176e	; 0x176e <fputc>
     9b0:	b3 94       	inc	r11

000009b2 <.L116>:
     9b2:	b5 14       	cp	r11, r5
     9b4:	c0 f3       	brcs	.-16     	; 0x9a6 <.L118>

000009b6 <.L158>:
     9b6:	00 e0       	ldi	r16, 0x00	; 0
     9b8:	6c cf       	rjmp	.-296    	; 0x892 <.L117>

000009ba <.L115>:
     9ba:	05 2d       	mov	r16, r5
     9bc:	0b 19       	sub	r16, r11
     9be:	b5 14       	cp	r11, r5
     9c0:	08 f4       	brcc	.+2      	; 0x9c4 <L0^A+0x2>

000009c2 <L0^A>:
     9c2:	67 cf       	rjmp	.-306    	; 0x892 <.L117>
     9c4:	f8 cf       	rjmp	.-16     	; 0x9b6 <.L158>

000009c6 <.L119>:
     9c6:	86 2d       	mov	r24, r6
     9c8:	86 78       	andi	r24, 0x86	; 134
     9ca:	09 f4       	brne	.+2      	; 0x9ce <L0^A+0x2>

000009cc <L0^A>:
     9cc:	74 cf       	rjmp	.-280    	; 0x8b6 <.L126>
     9ce:	8b e2       	ldi	r24, 0x2B	; 43
     9d0:	61 fe       	sbrs	r6, 1
     9d2:	80 e2       	ldi	r24, 0x20	; 32
     9d4:	67 fc       	sbrc	r6, 7
     9d6:	8d e2       	ldi	r24, 0x2D	; 45
     9d8:	b7 01       	movw	r22, r14
     9da:	90 e0       	ldi	r25, 0x00	; 0
     9dc:	6a cf       	rjmp	.-300    	; 0x8b2 <.L237>

000009de <.L127>:
     9de:	b7 01       	movw	r22, r14
     9e0:	80 e3       	ldi	r24, 0x30	; 48
     9e2:	90 e0       	ldi	r25, 0x00	; 0
     9e4:	0e 94 b7 0b 	call	0x176e	; 0x176e <fputc>
     9e8:	11 50       	subi	r17, 0x01	; 1
     9ea:	65 cf       	rjmp	.-310    	; 0x8b6 <.L126>

000009ec <.L132>:
     9ec:	8f ef       	ldi	r24, 0xFF	; 255
     9ee:	9f ef       	ldi	r25, 0xFF	; 255
     9f0:	94 cf       	rjmp	.-216    	; 0x91a <.L1>

000009f2 <.L33>:
     9f2:	24 e0       	ldi	r18, 0x04	; 4
     9f4:	00 e0       	ldi	r16, 0x00	; 0
     9f6:	25 15       	cp	r18, r5
     9f8:	08 f0       	brcs	.+2      	; 0x9fc <L0^A+0x2>

000009fa <L0^A>:
     9fa:	49 cd       	rjmp	.-1390   	; 0x48e <.L131>
     9fc:	84 e0       	ldi	r24, 0x04	; 4
     9fe:	3a cd       	rjmp	.-1420   	; 0x474 <.L130>

00000a00 <putval>:
     a00:	fc 01       	movw	r30, r24
     a02:	ca 01       	movw	r24, r20
     a04:	db 01       	movw	r26, r22
     a06:	20 fd       	sbrc	r18, 0
     a08:	08 c0       	rjmp	.+16     	; 0xa1a <.L1>
     a0a:	23 fd       	sbrc	r18, 3
     a0c:	05 c0       	rjmp	.+10     	; 0xa18 <.L1^B1>
     a0e:	22 ff       	sbrs	r18, 2
     a10:	02 c0       	rjmp	.+4      	; 0xa16 <.L2^B1>
     a12:	b3 83       	std	Z+3, r27	; 0x03
     a14:	a2 83       	std	Z+2, r26	; 0x02

00000a16 <.L2^B1>:
     a16:	91 83       	std	Z+1, r25	; 0x01

00000a18 <.L1^B1>:
     a18:	80 83       	st	Z, r24

00000a1a <.L1>:
     a1a:	08 95       	ret

00000a1c <mulacc>:
     a1c:	cf 92       	push	r12
     a1e:	df 92       	push	r13
     a20:	ef 92       	push	r14
     a22:	ff 92       	push	r15
     a24:	cf 93       	push	r28
     a26:	df 93       	push	r29
     a28:	00 d0       	rcall	.+0      	; 0xa2a <L0^A>

00000a2a <L0^A>:
     a2a:	00 d0       	rcall	.+0      	; 0xa2c <L0^A>

00000a2c <L0^A>:
     a2c:	cd b7       	in	r28, 0x3d	; 61
     a2e:	de b7       	in	r29, 0x3e	; 62
     a30:	6b 01       	movw	r12, r22
     a32:	7c 01       	movw	r14, r24
     a34:	83 e0       	ldi	r24, 0x03	; 3
     a36:	44 fd       	sbrc	r20, 4
     a38:	10 c0       	rjmp	.+32     	; 0xa5a <.L5>
     a3a:	84 e0       	ldi	r24, 0x04	; 4
     a3c:	46 fd       	sbrc	r20, 6
     a3e:	0d c0       	rjmp	.+26     	; 0xa5a <.L5>
     a40:	d6 01       	movw	r26, r12
     a42:	f7 01       	movw	r30, r14

00000a44 <.L1^B2>:
     a44:	aa 0f       	add	r26, r26
     a46:	bb 1f       	adc	r27, r27
     a48:	ee 1f       	adc	r30, r30
     a4a:	ff 1f       	adc	r31, r31
     a4c:	10 94       	com	r1
     a4e:	d1 f7       	brne	.-12     	; 0xa44 <.L1^B2>
     a50:	ca 0e       	add	r12, r26
     a52:	db 1e       	adc	r13, r27
     a54:	ee 1e       	adc	r14, r30
     a56:	ff 1e       	adc	r15, r31
     a58:	81 e0       	ldi	r24, 0x01	; 1

00000a5a <.L5>:
     a5a:	cc 0c       	add	r12, r12
     a5c:	dd 1c       	adc	r13, r13
     a5e:	ee 1c       	adc	r14, r14
     a60:	ff 1c       	adc	r15, r15
     a62:	81 50       	subi	r24, 0x01	; 1
     a64:	d1 f7       	brne	.-12     	; 0xa5a <.L5>
     a66:	d7 01       	movw	r26, r14
     a68:	c6 01       	movw	r24, r12
     a6a:	82 0f       	add	r24, r18
     a6c:	91 1d       	adc	r25, r1
     a6e:	a1 1d       	adc	r26, r1
     a70:	b1 1d       	adc	r27, r1
     a72:	bc 01       	movw	r22, r24
     a74:	cd 01       	movw	r24, r26
     a76:	0f 90       	pop	r0
     a78:	0f 90       	pop	r0
     a7a:	0f 90       	pop	r0
     a7c:	0f 90       	pop	r0
     a7e:	df 91       	pop	r29
     a80:	cf 91       	pop	r28
     a82:	ff 90       	pop	r15
     a84:	ef 90       	pop	r14
     a86:	df 90       	pop	r13
     a88:	cf 90       	pop	r12
     a8a:	08 95       	ret

00000a8c <skip_spaces>:
     a8c:	0f 93       	push	r16
     a8e:	1f 93       	push	r17
     a90:	cf 93       	push	r28
     a92:	df 93       	push	r29
     a94:	8c 01       	movw	r16, r24

00000a96 <.L11>:
     a96:	c8 01       	movw	r24, r16
     a98:	0e 94 79 0b 	call	0x16f2	; 0x16f2 <fgetc>
     a9c:	ec 01       	movw	r28, r24
     a9e:	97 fd       	sbrc	r25, 7
     aa0:	08 c0       	rjmp	.+16     	; 0xab2 <.L9>
     aa2:	0e 94 47 0b 	call	0x168e	; 0x168e <isspace>
     aa6:	89 2b       	or	r24, r25
     aa8:	b1 f7       	brne	.-20     	; 0xa96 <.L11>
     aaa:	b8 01       	movw	r22, r16
     aac:	ce 01       	movw	r24, r28
     aae:	0e 94 e7 0b 	call	0x17ce	; 0x17ce <ungetc>

00000ab2 <.L9>:
     ab2:	ce 01       	movw	r24, r28
     ab4:	df 91       	pop	r29
     ab6:	cf 91       	pop	r28
     ab8:	1f 91       	pop	r17
     aba:	0f 91       	pop	r16
     abc:	08 95       	ret

00000abe <conv_int>:
     abe:	b0 e0       	ldi	r27, 0x00	; 0
     ac0:	a0 e0       	ldi	r26, 0x00	; 0
     ac2:	e5 e6       	ldi	r30, 0x65	; 101
     ac4:	f5 e0       	ldi	r31, 0x05	; 5
     ac6:	0c 94 3f 0a 	jmp	0x147e	; 0x147e <.Loc.7>

00000aca <.L1^B3>:
     aca:	b8 2e       	mov	r11, r24
     acc:	d9 2f       	mov	r29, r25
     ace:	8b 01       	movw	r16, r22
     ad0:	94 2e       	mov	r9, r20
     ad2:	a5 2e       	mov	r10, r21
     ad4:	f2 2e       	mov	r15, r18
     ad6:	0e 94 79 0b 	call	0x16f2	; 0x16f2 <fgetc>
     ada:	fc 01       	movw	r30, r24
     adc:	99 27       	eor	r25, r25
     ade:	eb 32       	cpi	r30, 0x2B	; 43
     ae0:	21 f0       	breq	.+8      	; 0xaea <.L14>
     ae2:	8d 97       	sbiw	r24, 0x2d	; 45
     ae4:	91 f4       	brne	.+36     	; 0xb0a <.L15>
     ae6:	68 94       	set
     ae8:	f7 f8       	bld	r15, 7

00000aea <.L14>:
     aea:	01 50       	subi	r16, 0x01	; 1
     aec:	11 09       	sbc	r17, r1
     aee:	31 f4       	brne	.+12     	; 0xafc <.L16>

00000af0 <.L18>:
     af0:	80 e0       	ldi	r24, 0x00	; 0

00000af2 <.L13>:
     af2:	cd b7       	in	r28, 0x3d	; 61
     af4:	de b7       	in	r29, 0x3e	; 62
     af6:	eb e0       	ldi	r30, 0x0B	; 11
     af8:	0c 94 5b 0a 	jmp	0x14b6	; 0x14b6 <.Loc.7>

00000afc <.L16>:
     afc:	8b 2d       	mov	r24, r11
     afe:	9d 2f       	mov	r25, r29
     b00:	0e 94 79 0b 	call	0x16f2	; 0x16f2 <fgetc>
     b04:	fc 01       	movw	r30, r24
     b06:	97 fd       	sbrc	r25, 7
     b08:	f3 cf       	rjmp	.-26     	; 0xaf0 <.L18>

00000b0a <.L15>:
     b0a:	cf 2d       	mov	r28, r15
     b0c:	cd 7f       	andi	r28, 0xFD	; 253
     b0e:	8f 2d       	mov	r24, r15
     b10:	80 73       	andi	r24, 0x30	; 48
     b12:	21 f5       	brne	.+72     	; 0xb5c <.L19>
     b14:	e0 33       	cpi	r30, 0x30	; 48
     b16:	11 f5       	brne	.+68     	; 0xb5c <.L19>
     b18:	68 01       	movw	r12, r16
     b1a:	81 e0       	ldi	r24, 0x01	; 1
     b1c:	c8 1a       	sub	r12, r24
     b1e:	d1 08       	sbc	r13, r1
     b20:	a9 f0       	breq	.+42     	; 0xb4c <.L32>
     b22:	8b 2d       	mov	r24, r11
     b24:	9d 2f       	mov	r25, r29
     b26:	0e 94 79 0b 	call	0x16f2	; 0x16f2 <fgetc>
     b2a:	fc 01       	movw	r30, r24
     b2c:	97 fd       	sbrc	r25, 7
     b2e:	0e c0       	rjmp	.+28     	; 0xb4c <.L32>
     b30:	8f 7d       	andi	r24, 0xDF	; 223
     b32:	88 35       	cpi	r24, 0x58	; 88
     b34:	79 f4       	brne	.+30     	; 0xb54 <.L21>
     b36:	c2 64       	ori	r28, 0x42	; 66
     b38:	02 50       	subi	r16, 0x02	; 2
     b3a:	11 09       	sbc	r17, r1
     b3c:	39 f0       	breq	.+14     	; 0xb4c <.L32>
     b3e:	8b 2d       	mov	r24, r11
     b40:	9d 2f       	mov	r25, r29
     b42:	0e 94 79 0b 	call	0x16f2	; 0x16f2 <fgetc>
     b46:	fc 01       	movw	r30, r24
     b48:	97 ff       	sbrs	r25, 7
     b4a:	08 c0       	rjmp	.+16     	; 0xb5c <.L19>

00000b4c <.L32>:
     b4c:	c1 2c       	mov	r12, r1
     b4e:	d1 2c       	mov	r13, r1
     b50:	76 01       	movw	r14, r12
     b52:	1d c0       	rjmp	.+58     	; 0xb8e <.L20>

00000b54 <.L21>:
     b54:	f6 fe       	sbrs	r15, 6
     b56:	2e c0       	rjmp	.+92     	; 0xbb4 <.L22>
     b58:	c2 60       	ori	r28, 0x02	; 2

00000b5a <.L46>:
     b5a:	86 01       	movw	r16, r12

00000b5c <.L19>:
     b5c:	c1 2c       	mov	r12, r1
     b5e:	d1 2c       	mov	r13, r1
     b60:	76 01       	movw	r14, r12

00000b62 <.L27>:
     b62:	20 ed       	ldi	r18, 0xD0	; 208
     b64:	2e 0f       	add	r18, r30
     b66:	28 30       	cpi	r18, 0x08	; 8
     b68:	40 f1       	brcs	.+80     	; 0xbba <.L23>
     b6a:	c4 fd       	sbrc	r28, 4
     b6c:	09 c0       	rjmp	.+18     	; 0xb80 <.L24>
     b6e:	2a 30       	cpi	r18, 0x0A	; 10
     b70:	20 f1       	brcs	.+72     	; 0xbba <.L23>
     b72:	c6 ff       	sbrs	r28, 6
     b74:	05 c0       	rjmp	.+10     	; 0xb80 <.L24>
     b76:	2f 7d       	andi	r18, 0xDF	; 223
     b78:	8f ee       	ldi	r24, 0xEF	; 239
     b7a:	82 0f       	add	r24, r18
     b7c:	86 30       	cpi	r24, 0x06	; 6
     b7e:	e0 f0       	brcs	.+56     	; 0xbb8 <.L25>

00000b80 <.L24>:
     b80:	6b 2d       	mov	r22, r11
     b82:	7d 2f       	mov	r23, r29
     b84:	cf 01       	movw	r24, r30
     b86:	0e 94 e7 0b 	call	0x17ce	; 0x17ce <ungetc>

00000b8a <.L26>:
     b8a:	c1 ff       	sbrs	r28, 1
     b8c:	b1 cf       	rjmp	.-158    	; 0xaf0 <.L18>

00000b8e <.L20>:
     b8e:	c7 ff       	sbrs	r28, 7
     b90:	08 c0       	rjmp	.+16     	; 0xba2 <.L28>
     b92:	f0 94       	com	r15
     b94:	e0 94       	com	r14
     b96:	d0 94       	com	r13
     b98:	c0 94       	com	r12
     b9a:	c1 1c       	adc	r12, r1
     b9c:	d1 1c       	adc	r13, r1
     b9e:	e1 1c       	adc	r14, r1
     ba0:	f1 1c       	adc	r15, r1

00000ba2 <.L28>:
     ba2:	2c 2f       	mov	r18, r28
     ba4:	b7 01       	movw	r22, r14
     ba6:	a6 01       	movw	r20, r12
     ba8:	89 2d       	mov	r24, r9
     baa:	9a 2d       	mov	r25, r10
     bac:	0e 94 00 05 	call	0xa00	; 0xa00 <putval>
     bb0:	81 e0       	ldi	r24, 0x01	; 1
     bb2:	9f cf       	rjmp	.-194    	; 0xaf2 <.L13>

00000bb4 <.L22>:
     bb4:	c2 61       	ori	r28, 0x12	; 18
     bb6:	d1 cf       	rjmp	.-94     	; 0xb5a <.L46>

00000bb8 <.L25>:
     bb8:	27 50       	subi	r18, 0x07	; 7

00000bba <.L23>:
     bba:	4c 2f       	mov	r20, r28
     bbc:	c7 01       	movw	r24, r14
     bbe:	b6 01       	movw	r22, r12
     bc0:	0e 94 0e 05 	call	0xa1c	; 0xa1c <mulacc>
     bc4:	6b 01       	movw	r12, r22
     bc6:	7c 01       	movw	r14, r24
     bc8:	c2 60       	ori	r28, 0x02	; 2
     bca:	01 50       	subi	r16, 0x01	; 1
     bcc:	11 09       	sbc	r17, r1
     bce:	f9 f2       	breq	.-66     	; 0xb8e <.L20>
     bd0:	8b 2d       	mov	r24, r11
     bd2:	9d 2f       	mov	r25, r29
     bd4:	0e 94 79 0b 	call	0x16f2	; 0x16f2 <fgetc>
     bd8:	fc 01       	movw	r30, r24
     bda:	97 ff       	sbrs	r25, 7
     bdc:	c2 cf       	rjmp	.-124    	; 0xb62 <.L27>
     bde:	d5 cf       	rjmp	.-86     	; 0xb8a <.L26>

00000be0 <conv_brk>:
     be0:	a0 e2       	ldi	r26, 0x20	; 32
     be2:	b0 e0       	ldi	r27, 0x00	; 0
     be4:	e6 ef       	ldi	r30, 0xF6	; 246
     be6:	f5 e0       	ldi	r31, 0x05	; 5
     be8:	0c 94 3d 0a 	jmp	0x147a	; 0x147a <.Loc.5>

00000bec <.L1^B4>:
     bec:	5c 01       	movw	r10, r24
     bee:	6b 01       	movw	r12, r22
     bf0:	7a 01       	movw	r14, r20
     bf2:	ce 01       	movw	r24, r28
     bf4:	01 96       	adiw	r24, 0x01	; 1
     bf6:	4c 01       	movw	r8, r24
     bf8:	80 e2       	ldi	r24, 0x20	; 32
     bfa:	f4 01       	movw	r30, r8

00000bfc <.L0^B1>:
     bfc:	11 92       	st	Z+, r1
     bfe:	8a 95       	dec	r24
     c00:	e9 f7       	brne	.-6      	; 0xbfc <.L0^B1>
     c02:	f5 01       	movw	r30, r10
     c04:	73 80       	ldd	r7, Z+3	; 0x03
     c06:	89 01       	movw	r16, r18
     c08:	50 e0       	ldi	r21, 0x00	; 0
     c0a:	40 e0       	ldi	r20, 0x00	; 0
     c0c:	b0 e0       	ldi	r27, 0x00	; 0
     c0e:	20 e0       	ldi	r18, 0x00	; 0
     c10:	a0 e0       	ldi	r26, 0x00	; 0
     c12:	61 e0       	ldi	r22, 0x01	; 1
     c14:	70 e0       	ldi	r23, 0x00	; 0

00000c16 <.L58>:
     c16:	f8 01       	movw	r30, r16
     c18:	73 fc       	sbrc	r7, 3
     c1a:	95 91       	lpm	r25, Z+
     c1c:	73 fe       	sbrs	r7, 3
     c1e:	91 91       	ld	r25, Z+
     c20:	89 2f       	mov	r24, r25
     c22:	8f 01       	movw	r16, r30
     c24:	91 11       	cpse	r25, r1
     c26:	07 c0       	rjmp	.+14     	; 0xc36 <.L48>

00000c28 <.L67>:
     c28:	10 e0       	ldi	r17, 0x00	; 0
     c2a:	00 e0       	ldi	r16, 0x00	; 0

00000c2c <.L47>:
     c2c:	c8 01       	movw	r24, r16
     c2e:	a0 96       	adiw	r28, 0x20	; 32
     c30:	ed e0       	ldi	r30, 0x0D	; 13
     c32:	0c 94 59 0a 	jmp	0x14b2	; 0x14b2 <.Loc.5>

00000c36 <.L48>:
     c36:	9e 35       	cpi	r25, 0x5E	; 94
     c38:	19 f4       	brne	.+6      	; 0xc40 <.L50>
     c3a:	41 15       	cp	r20, r1
     c3c:	51 05       	cpc	r21, r1
     c3e:	31 f1       	breq	.+76     	; 0xc8c <.L68>

00000c40 <.L50>:
     c40:	a4 17       	cp	r26, r20
     c42:	15 06       	cpc	r1, r21
     c44:	ec f4       	brge	.+58     	; 0xc80 <.L52>
     c46:	9d 35       	cpi	r25, 0x5D	; 93
     c48:	49 f1       	breq	.+82     	; 0xc9c <.L53>
     c4a:	9d 32       	cpi	r25, 0x2D	; 45
     c4c:	c9 f4       	brne	.+50     	; 0xc80 <.L52>
     c4e:	22 23       	and	r18, r18
     c50:	09 f1       	breq	.+66     	; 0xc94 <.L69>

00000c52 <.L55>:
     c52:	e8 2f       	mov	r30, r24
     c54:	e6 95       	lsr	r30
     c56:	e6 95       	lsr	r30
     c58:	e6 95       	lsr	r30
     c5a:	e8 0d       	add	r30, r8
     c5c:	f9 2d       	mov	r31, r9
     c5e:	f1 1d       	adc	r31, r1
     c60:	98 2f       	mov	r25, r24
     c62:	97 70       	andi	r25, 0x07	; 7
     c64:	9b 01       	movw	r18, r22
     c66:	01 c0       	rjmp	.+2      	; 0xc6a <.L2^B2>

00000c68 <.L1^B5>:
     c68:	22 0f       	add	r18, r18

00000c6a <.L2^B2>:
     c6a:	9a 95       	dec	r25
     c6c:	ea f7       	brpl	.-6      	; 0xc68 <.L1^B5>
     c6e:	90 81       	ld	r25, Z
     c70:	29 2b       	or	r18, r25
     c72:	20 83       	st	Z, r18
     c74:	8b 17       	cp	r24, r27
     c76:	81 f0       	breq	.+32     	; 0xc98 <.L71>
     c78:	8b 17       	cp	r24, r27
     c7a:	30 f4       	brcc	.+12     	; 0xc88 <.L56>
     c7c:	8f 5f       	subi	r24, 0xFF	; 255
     c7e:	e9 cf       	rjmp	.-46     	; 0xc52 <.L55>

00000c80 <.L52>:
     c80:	21 11       	cpse	r18, r1
     c82:	e7 cf       	rjmp	.-50     	; 0xc52 <.L55>
     c84:	b9 2f       	mov	r27, r25
     c86:	e5 cf       	rjmp	.-54     	; 0xc52 <.L55>

00000c88 <.L56>:
     c88:	81 50       	subi	r24, 0x01	; 1
     c8a:	e3 cf       	rjmp	.-58     	; 0xc52 <.L55>

00000c8c <.L68>:
     c8c:	a1 e0       	ldi	r26, 0x01	; 1

00000c8e <.L51>:
     c8e:	4f 5f       	subi	r20, 0xFF	; 255
     c90:	5f 4f       	sbci	r21, 0xFF	; 255
     c92:	c1 cf       	rjmp	.-126    	; 0xc16 <.L58>

00000c94 <.L69>:
     c94:	21 e0       	ldi	r18, 0x01	; 1
     c96:	fb cf       	rjmp	.-10     	; 0xc8e <.L51>

00000c98 <.L71>:
     c98:	20 e0       	ldi	r18, 0x00	; 0
     c9a:	f9 cf       	rjmp	.-14     	; 0xc8e <.L51>

00000c9c <.L53>:
     c9c:	22 23       	and	r18, r18
     c9e:	19 f0       	breq	.+6      	; 0xca6 <.L59>
     ca0:	8e 81       	ldd	r24, Y+6	; 0x06
     ca2:	80 62       	ori	r24, 0x20	; 32
     ca4:	8e 83       	std	Y+6, r24	; 0x06

00000ca6 <.L59>:
     ca6:	aa 23       	and	r26, r26
     ca8:	61 f0       	breq	.+24     	; 0xcc2 <.L60>
     caa:	f4 01       	movw	r30, r8
     cac:	9e 01       	movw	r18, r28
     cae:	2f 5d       	subi	r18, 0xDF	; 223
     cb0:	3f 4f       	sbci	r19, 0xFF	; 255

00000cb2 <.L61>:
     cb2:	80 81       	ld	r24, Z
     cb4:	df 01       	movw	r26, r30
     cb6:	31 96       	adiw	r30, 0x01	; 1
     cb8:	80 95       	com	r24
     cba:	8c 93       	st	X, r24
     cbc:	e2 17       	cp	r30, r18
     cbe:	f3 07       	cpc	r31, r19
     cc0:	c1 f7       	brne	.-16     	; 0xcb2 <.L61>

00000cc2 <.L60>:
     cc2:	77 24       	eor	r7, r7
     cc4:	73 94       	inc	r7

00000cc6 <.L65>:
     cc6:	c5 01       	movw	r24, r10
     cc8:	0e 94 79 0b 	call	0x16f2	; 0x16f2 <fgetc>
     ccc:	97 fd       	sbrc	r25, 7
     cce:	16 c0       	rjmp	.+44     	; 0xcfc <.L62>
     cd0:	e8 2f       	mov	r30, r24
     cd2:	e6 95       	lsr	r30
     cd4:	e6 95       	lsr	r30
     cd6:	e6 95       	lsr	r30
     cd8:	e8 0d       	add	r30, r8
     cda:	f9 2d       	mov	r31, r9
     cdc:	f1 1d       	adc	r31, r1
     cde:	20 81       	ld	r18, Z
     ce0:	30 e0       	ldi	r19, 0x00	; 0
     ce2:	ac 01       	movw	r20, r24
     ce4:	47 70       	andi	r20, 0x07	; 7
     ce6:	55 27       	eor	r21, r21
     ce8:	02 c0       	rjmp	.+4      	; 0xcee <.L2^B3>

00000cea <.L1^B6>:
     cea:	35 95       	asr	r19
     cec:	27 95       	ror	r18

00000cee <.L2^B3>:
     cee:	4a 95       	dec	r20
     cf0:	e2 f7       	brpl	.-8      	; 0xcea <.L1^B6>
     cf2:	20 fd       	sbrc	r18, 0
     cf4:	06 c0       	rjmp	.+12     	; 0xd02 <.L63>
     cf6:	b5 01       	movw	r22, r10
     cf8:	0e 94 e7 0b 	call	0x17ce	; 0x17ce <ungetc>

00000cfc <.L62>:
     cfc:	77 20       	and	r7, r7
     cfe:	61 f0       	breq	.+24     	; 0xd18 <.L66>
     d00:	93 cf       	rjmp	.-218    	; 0xc28 <.L67>

00000d02 <.L63>:
     d02:	e1 14       	cp	r14, r1
     d04:	f1 04       	cpc	r15, r1
     d06:	19 f0       	breq	.+6      	; 0xd0e <.L64>
     d08:	f7 01       	movw	r30, r14
     d0a:	81 93       	st	Z+, r24
     d0c:	7f 01       	movw	r14, r30

00000d0e <.L64>:
     d0e:	f1 e0       	ldi	r31, 0x01	; 1
     d10:	cf 1a       	sub	r12, r31
     d12:	d1 08       	sbc	r13, r1
     d14:	71 2c       	mov	r7, r1
     d16:	b9 f6       	brne	.-82     	; 0xcc6 <.L65>

00000d18 <.L66>:
     d18:	e1 14       	cp	r14, r1
     d1a:	f1 04       	cpc	r15, r1
     d1c:	09 f4       	brne	.+2      	; 0xd20 <L0^A+0x2>

00000d1e <L0^A>:
     d1e:	86 cf       	rjmp	.-244    	; 0xc2c <.L47>
     d20:	f7 01       	movw	r30, r14
     d22:	10 82       	st	Z, r1
     d24:	83 cf       	rjmp	.-250    	; 0xc2c <.L47>

00000d26 <conv_flt>:
     d26:	aa e0       	ldi	r26, 0x0A	; 10
     d28:	b0 e0       	ldi	r27, 0x00	; 0
     d2a:	e9 e9       	ldi	r30, 0x99	; 153
     d2c:	f6 e0       	ldi	r31, 0x06	; 6
     d2e:	0c 94 3d 0a 	jmp	0x147a	; 0x147a <.Loc.5>

00000d32 <.L1^B7>:
     d32:	78 2e       	mov	r7, r24
     d34:	c9 2e       	mov	r12, r25
     d36:	8b 01       	movw	r16, r22
     d38:	5a 01       	movw	r10, r20
     d3a:	0e 94 79 0b 	call	0x16f2	; 0x16f2 <fgetc>
     d3e:	89 87       	std	Y+9, r24	; 0x09
     d40:	9a 87       	std	Y+10, r25	; 0x0a
     d42:	89 85       	ldd	r24, Y+9	; 0x09
     d44:	9a 85       	ldd	r25, Y+10	; 0x0a
     d46:	99 27       	eor	r25, r25
     d48:	29 85       	ldd	r18, Y+9	; 0x09
     d4a:	2b 32       	cpi	r18, 0x2B	; 43
     d4c:	31 f0       	breq	.+12     	; 0xd5a <.L119>
     d4e:	50 e8       	ldi	r21, 0x80	; 128
     d50:	95 2e       	mov	r9, r21
     d52:	8d 97       	sbiw	r24, 0x2d	; 45
     d54:	19 f0       	breq	.+6      	; 0xd5c <.L87>
     d56:	91 2c       	mov	r9, r1
     d58:	13 c0       	rjmp	.+38     	; 0xd80 <.L88>

00000d5a <.L119>:
     d5a:	91 2c       	mov	r9, r1

00000d5c <.L87>:
     d5c:	01 50       	subi	r16, 0x01	; 1
     d5e:	11 09       	sbc	r17, r1
     d60:	29 f4       	brne	.+10     	; 0xd6c <.L89>

00000d62 <.L91>:
     d62:	80 e0       	ldi	r24, 0x00	; 0

00000d64 <.L86>:
     d64:	2a 96       	adiw	r28, 0x0a	; 10
     d66:	ed e0       	ldi	r30, 0x0D	; 13
     d68:	0c 94 59 0a 	jmp	0x14b2	; 0x14b2 <.Loc.5>

00000d6c <.L89>:
     d6c:	87 2d       	mov	r24, r7
     d6e:	9c 2d       	mov	r25, r12
     d70:	0e 94 79 0b 	call	0x16f2	; 0x16f2 <fgetc>
     d74:	89 87       	std	Y+9, r24	; 0x09
     d76:	9a 87       	std	Y+10, r25	; 0x0a
     d78:	89 85       	ldd	r24, Y+9	; 0x09
     d7a:	9a 85       	ldd	r25, Y+10	; 0x0a
     d7c:	97 fd       	sbrc	r25, 7
     d7e:	f1 cf       	rjmp	.-30     	; 0xd62 <.L91>

00000d80 <.L88>:
     d80:	89 85       	ldd	r24, Y+9	; 0x09
     d82:	9a 85       	ldd	r25, Y+10	; 0x0a
     d84:	0e 94 50 0b 	call	0x16a0	; 0x16a0 <tolower>
     d88:	89 36       	cpi	r24, 0x69	; 105
     d8a:	91 05       	cpc	r25, r1
     d8c:	09 f4       	brne	.+2      	; 0xd90 <L0^A+0x2>

00000d8e <L0^A>:
     d8e:	d8 c0       	rjmp	.+432    	; 0xf40 <.L121>
     d90:	8e 36       	cpi	r24, 0x6E	; 110
     d92:	91 05       	cpc	r25, r1
     d94:	09 f4       	brne	.+2      	; 0xd98 <L0^A+0x2>

00000d96 <L0^A>:
     d96:	ea c0       	rjmp	.+468    	; 0xf6c <.L122>
     d98:	19 82       	std	Y+1, r1	; 0x01
     d9a:	1a 82       	std	Y+2, r1	; 0x02
     d9c:	1b 82       	std	Y+3, r1	; 0x03
     d9e:	1c 82       	std	Y+4, r1	; 0x04
     da0:	f1 2c       	mov	r15, r1
     da2:	e1 2c       	mov	r14, r1

00000da4 <.L93>:
     da4:	29 85       	ldd	r18, Y+9	; 0x09
     da6:	20 53       	subi	r18, 0x30	; 48
     da8:	d9 2c       	mov	r13, r9
     daa:	2a 30       	cpi	r18, 0x0A	; 10
     dac:	08 f0       	brcs	.+2      	; 0xdb0 <L0^A+0x2>

00000dae <L0^A>:
     dae:	03 c1       	rjmp	.+518    	; 0xfb6 <.L102>
     db0:	68 94       	set
     db2:	d1 f8       	bld	r13, 1
     db4:	89 2d       	mov	r24, r9
     db6:	88 70       	andi	r24, 0x08	; 8
     db8:	92 fe       	sbrs	r9, 2
     dba:	df c0       	rjmp	.+446    	; 0xf7a <.L103>
     dbc:	81 11       	cpse	r24, r1
     dbe:	03 c0       	rjmp	.+6      	; 0xdc6 <.L104>
     dc0:	ff ef       	ldi	r31, 0xFF	; 255
     dc2:	ef 1a       	sub	r14, r31
     dc4:	ff 0a       	sbc	r15, r31

00000dc6 <.L104>:
     dc6:	01 50       	subi	r16, 0x01	; 1
     dc8:	11 09       	sbc	r17, r1
     dca:	51 f0       	breq	.+20     	; 0xde0 <.L106>
     dcc:	87 2d       	mov	r24, r7
     dce:	9c 2d       	mov	r25, r12
     dd0:	0e 94 79 0b 	call	0x16f2	; 0x16f2 <fgetc>
     dd4:	89 87       	std	Y+9, r24	; 0x09
     dd6:	9a 87       	std	Y+10, r25	; 0x0a
     dd8:	29 85       	ldd	r18, Y+9	; 0x09
     dda:	3a 85       	ldd	r19, Y+10	; 0x0a
     ddc:	37 ff       	sbrs	r19, 7
     dde:	cb c0       	rjmp	.+406    	; 0xf76 <.L125>

00000de0 <.L106>:
     de0:	d1 fe       	sbrs	r13, 1
     de2:	bf cf       	rjmp	.-130    	; 0xd62 <.L91>
     de4:	89 85       	ldd	r24, Y+9	; 0x09
     de6:	8f 7d       	andi	r24, 0xDF	; 223
     de8:	85 34       	cpi	r24, 0x45	; 69
     dea:	09 f0       	breq	.+2      	; 0xdee <L0^A+0x2>

00000dec <L0^A>:
     dec:	53 c0       	rjmp	.+166    	; 0xe94 <.L107>
     dee:	48 01       	movw	r8, r16
     df0:	31 e0       	ldi	r19, 0x01	; 1
     df2:	83 1a       	sub	r8, r19
     df4:	91 08       	sbc	r9, r1
     df6:	09 f4       	brne	.+2      	; 0xdfa <L0^A+0x2>

00000df8 <L0^A>:
     df8:	b4 cf       	rjmp	.-152    	; 0xd62 <.L91>
     dfa:	87 2d       	mov	r24, r7
     dfc:	9c 2d       	mov	r25, r12
     dfe:	0e 94 79 0b 	call	0x16f2	; 0x16f2 <fgetc>
     e02:	89 87       	std	Y+9, r24	; 0x09
     e04:	9a 87       	std	Y+10, r25	; 0x0a
     e06:	89 85       	ldd	r24, Y+9	; 0x09
     e08:	9a 85       	ldd	r25, Y+10	; 0x0a
     e0a:	97 fd       	sbrc	r25, 7
     e0c:	aa cf       	rjmp	.-172    	; 0xd62 <.L91>
     e0e:	99 27       	eor	r25, r25
     e10:	a9 85       	ldd	r26, Y+9	; 0x09
     e12:	ab 32       	cpi	r26, 0x2B	; 43
     e14:	21 f0       	breq	.+8      	; 0xe1e <.L108>
     e16:	8d 97       	sbiw	r24, 0x2d	; 45
     e18:	71 f4       	brne	.+28     	; 0xe36 <.L109>
     e1a:	68 94       	set
     e1c:	d4 f8       	bld	r13, 4

00000e1e <.L108>:
     e1e:	48 01       	movw	r8, r16
     e20:	b2 e0       	ldi	r27, 0x02	; 2
     e22:	8b 1a       	sub	r8, r27
     e24:	91 08       	sbc	r9, r1
     e26:	09 f4       	brne	.+2      	; 0xe2a <L0^A+0x2>

00000e28 <L0^A>:
     e28:	9c cf       	rjmp	.-200    	; 0xd62 <.L91>
     e2a:	87 2d       	mov	r24, r7
     e2c:	9c 2d       	mov	r25, r12
     e2e:	0e 94 79 0b 	call	0x16f2	; 0x16f2 <fgetc>
     e32:	89 87       	std	Y+9, r24	; 0x09
     e34:	9a 87       	std	Y+10, r25	; 0x0a

00000e36 <.L109>:
     e36:	89 85       	ldd	r24, Y+9	; 0x09
     e38:	9a 85       	ldd	r25, Y+10	; 0x0a
     e3a:	c0 97       	sbiw	r24, 0x30	; 48
     e3c:	0a 97       	sbiw	r24, 0x0a	; 10
     e3e:	08 f0       	brcs	.+2      	; 0xe42 <L0^A+0x2>

00000e40 <L0^A>:
     e40:	90 cf       	rjmp	.-224    	; 0xd62 <.L91>
     e42:	10 e0       	ldi	r17, 0x00	; 0
     e44:	00 e0       	ldi	r16, 0x00	; 0

00000e46 <.L111>:
     e46:	c8 01       	movw	r24, r16
     e48:	11 0f       	add	r17, r17
     e4a:	aa 0b       	sbc	r26, r26
     e4c:	bb 0b       	sbc	r27, r27
     e4e:	8d 83       	std	Y+5, r24	; 0x05
     e50:	9e 83       	std	Y+6, r25	; 0x06
     e52:	af 83       	std	Y+7, r26	; 0x07
     e54:	b8 87       	std	Y+8, r27	; 0x08
     e56:	29 85       	ldd	r18, Y+9	; 0x09
     e58:	20 53       	subi	r18, 0x30	; 48
     e5a:	40 e2       	ldi	r20, 0x20	; 32
     e5c:	bc 01       	movw	r22, r24
     e5e:	cd 01       	movw	r24, r26
     e60:	0e 94 0e 05 	call	0xa1c	; 0xa1c <mulacc>
     e64:	8b 01       	movw	r16, r22
     e66:	91 e0       	ldi	r25, 0x01	; 1
     e68:	89 1a       	sub	r8, r25
     e6a:	91 08       	sbc	r9, r1
     e6c:	59 f0       	breq	.+22     	; 0xe84 <.L110>
     e6e:	87 2d       	mov	r24, r7
     e70:	9c 2d       	mov	r25, r12
     e72:	0e 94 79 0b 	call	0x16f2	; 0x16f2 <fgetc>
     e76:	89 87       	std	Y+9, r24	; 0x09
     e78:	9a 87       	std	Y+10, r25	; 0x0a
     e7a:	89 85       	ldd	r24, Y+9	; 0x09
     e7c:	9a 85       	ldd	r25, Y+10	; 0x0a
     e7e:	c0 97       	sbiw	r24, 0x30	; 48
     e80:	0a 97       	sbiw	r24, 0x0a	; 10
     e82:	08 f3       	brcs	.-62     	; 0xe46 <.L111>

00000e84 <.L110>:
     e84:	d4 fe       	sbrs	r13, 4
     e86:	03 c0       	rjmp	.+6      	; 0xe8e <.L112>
     e88:	11 95       	neg	r17
     e8a:	01 95       	neg	r16
     e8c:	11 09       	sbc	r17, r1

00000e8e <.L112>:
     e8e:	e0 0e       	add	r14, r16
     e90:	f1 1e       	adc	r15, r17
     e92:	84 01       	movw	r16, r8

00000e94 <.L107>:
     e94:	01 2b       	or	r16, r17
     e96:	49 f0       	breq	.+18     	; 0xeaa <.L113>
     e98:	a9 85       	ldd	r26, Y+9	; 0x09
     e9a:	ba 85       	ldd	r27, Y+10	; 0x0a
     e9c:	b7 fd       	sbrc	r27, 7
     e9e:	05 c0       	rjmp	.+10     	; 0xeaa <.L113>
     ea0:	67 2d       	mov	r22, r7
     ea2:	7c 2d       	mov	r23, r12
     ea4:	cd 01       	movw	r24, r26
     ea6:	0e 94 e7 0b 	call	0x17ce	; 0x17ce <ungetc>

00000eaa <.L113>:
     eaa:	69 81       	ldd	r22, Y+1	; 0x01
     eac:	7a 81       	ldd	r23, Y+2	; 0x02
     eae:	8b 81       	ldd	r24, Y+3	; 0x03
     eb0:	9c 81       	ldd	r25, Y+4	; 0x04
     eb2:	0e 94 3d 09 	call	0x127a	; 0x127a <__floatunsisf>
     eb6:	69 83       	std	Y+1, r22	; 0x01
     eb8:	7a 83       	std	Y+2, r23	; 0x02
     eba:	8b 83       	std	Y+3, r24	; 0x03
     ebc:	9c 83       	std	Y+4, r25	; 0x04
     ebe:	69 81       	ldd	r22, Y+1	; 0x01
     ec0:	7a 81       	ldd	r23, Y+2	; 0x02
     ec2:	8b 81       	ldd	r24, Y+3	; 0x03
     ec4:	9c 81       	ldd	r25, Y+4	; 0x04
     ec6:	f7 fe       	sbrs	r15, 7
     ec8:	9f c0       	rjmp	.+318    	; 0x1008 <.L126>
     eca:	f1 94       	neg	r15
     ecc:	e1 94       	neg	r14
     ece:	f1 08       	sbc	r15, r1
     ed0:	eb e9       	ldi	r30, 0x9B	; 155
     ed2:	f1 e0       	ldi	r31, 0x01	; 1
     ed4:	fe 83       	std	Y+6, r31	; 0x06
     ed6:	ed 83       	std	Y+5, r30	; 0x05

00000ed8 <.L114>:
     ed8:	8d 80       	ldd	r8, Y+5	; 0x05
     eda:	9e 80       	ldd	r9, Y+6	; 0x06
     edc:	b8 e1       	ldi	r27, 0x18	; 24
     ede:	8b 1a       	sub	r8, r27
     ee0:	91 08       	sbc	r9, r1
     ee2:	00 e2       	ldi	r16, 0x20	; 32
     ee4:	10 e0       	ldi	r17, 0x00	; 0
     ee6:	81 c0       	rjmp	.+258    	; 0xfea <.L117>

00000ee8 <.L99>:
     ee8:	01 50       	subi	r16, 0x01	; 1
     eea:	11 09       	sbc	r17, r1
     eec:	81 f0       	breq	.+32     	; 0xf0e <.L95>
     eee:	87 2d       	mov	r24, r7
     ef0:	9c 2d       	mov	r25, r12
     ef2:	0e 94 79 0b 	call	0x16f2	; 0x16f2 <fgetc>
     ef6:	7c 01       	movw	r14, r24
     ef8:	97 fd       	sbrc	r25, 7
     efa:	09 c0       	rjmp	.+18     	; 0xf0e <.L95>
     efc:	0e 94 50 0b 	call	0x16a0	; 0x16a0 <tolower>
     f00:	d8 16       	cp	r13, r24
     f02:	11 f1       	breq	.+68     	; 0xf48 <.L97>
     f04:	67 2d       	mov	r22, r7
     f06:	7c 2d       	mov	r23, r12
     f08:	c7 01       	movw	r24, r14
     f0a:	0e 94 e7 0b 	call	0x17ce	; 0x17ce <ungetc>

00000f0e <.L95>:
     f0e:	a9 81       	ldd	r26, Y+1	; 0x01
     f10:	ba 81       	ldd	r27, Y+2	; 0x02
     f12:	a2 58       	subi	r26, 0x82	; 130
     f14:	b1 40       	sbci	r27, 0x01	; 1
     f16:	09 f0       	breq	.+2      	; 0xf1a <.L100>

00000f18 <L0^A>:
     f18:	24 cf       	rjmp	.-440    	; 0xd62 <.L91>

00000f1a <.L100>:
     f1a:	80 e0       	ldi	r24, 0x00	; 0
     f1c:	90 e0       	ldi	r25, 0x00	; 0
     f1e:	a0 e8       	ldi	r26, 0x80	; 128
     f20:	bf e7       	ldi	r27, 0x7F	; 127

00000f22 <.L98>:
     f22:	bc 01       	movw	r22, r24
     f24:	cd 01       	movw	r24, r26
     f26:	d9 2c       	mov	r13, r9

00000f28 <.L101>:
     f28:	d7 fc       	sbrc	r13, 7
     f2a:	90 58       	subi	r25, 0x80	; 128
     f2c:	a1 14       	cp	r10, r1
     f2e:	b1 04       	cpc	r11, r1
     f30:	29 f0       	breq	.+10     	; 0xf3c <.L127>
     f32:	f5 01       	movw	r30, r10
     f34:	60 83       	st	Z, r22
     f36:	71 83       	std	Z+1, r23	; 0x01
     f38:	82 83       	std	Z+2, r24	; 0x02
     f3a:	93 83       	std	Z+3, r25	; 0x03

00000f3c <.L127>:
     f3c:	81 e0       	ldi	r24, 0x01	; 1
     f3e:	12 cf       	rjmp	.-476    	; 0xd64 <.L86>

00000f40 <.L121>:
     f40:	2f e7       	ldi	r18, 0x7F	; 127
     f42:	31 e0       	ldi	r19, 0x01	; 1
     f44:	3a 83       	std	Y+2, r19	; 0x02
     f46:	29 83       	std	Y+1, r18	; 0x01

00000f48 <.L97>:
     f48:	a9 81       	ldd	r26, Y+1	; 0x01
     f4a:	ba 81       	ldd	r27, Y+2	; 0x02
     f4c:	11 96       	adiw	r26, 0x01	; 1
     f4e:	ba 83       	std	Y+2, r27	; 0x02
     f50:	a9 83       	std	Y+1, r26	; 0x01
     f52:	fd 01       	movw	r30, r26
     f54:	31 97       	sbiw	r30, 0x01	; 1
     f56:	d4 90       	lpm	r13, Z
     f58:	d1 10       	cpse	r13, r1
     f5a:	c6 cf       	rjmp	.-116    	; 0xee8 <.L99>
     f5c:	af 57       	subi	r26, 0x7F	; 127
     f5e:	b1 40       	sbci	r27, 0x01	; 1
     f60:	e1 f6       	brne	.-72     	; 0xf1a <.L100>
     f62:	80 e0       	ldi	r24, 0x00	; 0
     f64:	90 e0       	ldi	r25, 0x00	; 0
     f66:	a0 ec       	ldi	r26, 0xC0	; 192
     f68:	bf e7       	ldi	r27, 0x7F	; 127
     f6a:	db cf       	rjmp	.-74     	; 0xf22 <.L98>

00000f6c <.L122>:
     f6c:	8c e7       	ldi	r24, 0x7C	; 124
     f6e:	91 e0       	ldi	r25, 0x01	; 1
     f70:	9a 83       	std	Y+2, r25	; 0x02
     f72:	89 83       	std	Y+1, r24	; 0x01
     f74:	e9 cf       	rjmp	.-46     	; 0xf48 <.L97>

00000f76 <.L125>:
     f76:	9d 2c       	mov	r9, r13
     f78:	15 cf       	rjmp	.-470    	; 0xda4 <.L93>

00000f7a <.L103>:
     f7a:	88 23       	and	r24, r24
     f7c:	19 f0       	breq	.+6      	; 0xf84 <.L105>
     f7e:	31 e0       	ldi	r19, 0x01	; 1
     f80:	e3 1a       	sub	r14, r19
     f82:	f1 08       	sbc	r15, r1

00000f84 <.L105>:
     f84:	40 e2       	ldi	r20, 0x20	; 32
     f86:	69 81       	ldd	r22, Y+1	; 0x01
     f88:	7a 81       	ldd	r23, Y+2	; 0x02
     f8a:	8b 81       	ldd	r24, Y+3	; 0x03
     f8c:	9c 81       	ldd	r25, Y+4	; 0x04
     f8e:	0e 94 0e 05 	call	0xa1c	; 0xa1c <mulacc>
     f92:	69 83       	std	Y+1, r22	; 0x01
     f94:	7a 83       	std	Y+2, r23	; 0x02
     f96:	8b 83       	std	Y+3, r24	; 0x03
     f98:	9c 83       	std	Y+4, r25	; 0x04
     f9a:	89 81       	ldd	r24, Y+1	; 0x01
     f9c:	9a 81       	ldd	r25, Y+2	; 0x02
     f9e:	ab 81       	ldd	r26, Y+3	; 0x03
     fa0:	bc 81       	ldd	r27, Y+4	; 0x04
     fa2:	88 39       	cpi	r24, 0x98	; 152
     fa4:	99 49       	sbci	r25, 0x99	; 153
     fa6:	a9 49       	sbci	r26, 0x99	; 153
     fa8:	b9 41       	sbci	r27, 0x19	; 25
     faa:	08 f4       	brcc	.+2      	; 0xfae <L0^A+0x2>

00000fac <L0^A>:
     fac:	0c cf       	rjmp	.-488    	; 0xdc6 <.L104>
     fae:	f9 2d       	mov	r31, r9
     fb0:	f6 60       	ori	r31, 0x06	; 6
     fb2:	df 2e       	mov	r13, r31
     fb4:	08 cf       	rjmp	.-496    	; 0xdc6 <.L104>

00000fb6 <.L102>:
     fb6:	2e 3f       	cpi	r18, 0xFE	; 254
     fb8:	09 f0       	breq	.+2      	; 0xfbc <L0^A+0x2>

00000fba <L0^A>:
     fba:	12 cf       	rjmp	.-476    	; 0xde0 <.L106>
     fbc:	93 fc       	sbrc	r9, 3
     fbe:	10 cf       	rjmp	.-480    	; 0xde0 <.L106>
     fc0:	68 94       	set
     fc2:	d3 f8       	bld	r13, 3
     fc4:	00 cf       	rjmp	.-512    	; 0xdc6 <.L104>

00000fc6 <.L115>:
     fc6:	ed 81       	ldd	r30, Y+5	; 0x05
     fc8:	fe 81       	ldd	r31, Y+6	; 0x06
     fca:	25 91       	lpm	r18, Z+
     fcc:	35 91       	lpm	r19, Z+
     fce:	45 91       	lpm	r20, Z+
     fd0:	54 91       	lpm	r21, Z
     fd2:	0e 94 7a 09 	call	0x12f4	; 0x12f4 <__mulsf3>
     fd6:	69 83       	std	Y+1, r22	; 0x01
     fd8:	7a 83       	std	Y+2, r23	; 0x02
     fda:	8b 83       	std	Y+3, r24	; 0x03
     fdc:	9c 83       	std	Y+4, r25	; 0x04
     fde:	69 81       	ldd	r22, Y+1	; 0x01
     fe0:	7a 81       	ldd	r23, Y+2	; 0x02
     fe2:	8b 81       	ldd	r24, Y+3	; 0x03
     fe4:	9c 81       	ldd	r25, Y+4	; 0x04
     fe6:	e0 1a       	sub	r14, r16
     fe8:	f1 0a       	sbc	r15, r17

00000fea <.L117>:
     fea:	e0 16       	cp	r14, r16
     fec:	f1 06       	cpc	r15, r17
     fee:	58 f7       	brcc	.-42     	; 0xfc6 <.L115>
     ff0:	2d 81       	ldd	r18, Y+5	; 0x05
     ff2:	3e 81       	ldd	r19, Y+6	; 0x06
     ff4:	24 50       	subi	r18, 0x04	; 4
     ff6:	31 09       	sbc	r19, r1
     ff8:	3e 83       	std	Y+6, r19	; 0x06
     ffa:	2d 83       	std	Y+5, r18	; 0x05
     ffc:	16 95       	lsr	r17
     ffe:	07 95       	ror	r16
    1000:	28 15       	cp	r18, r8
    1002:	39 05       	cpc	r19, r9
    1004:	91 f7       	brne	.-28     	; 0xfea <.L117>
    1006:	90 cf       	rjmp	.-224    	; 0xf28 <.L101>

00001008 <.L126>:
    1008:	a3 eb       	ldi	r26, 0xB3	; 179
    100a:	b1 e0       	ldi	r27, 0x01	; 1
    100c:	be 83       	std	Y+6, r27	; 0x06
    100e:	ad 83       	std	Y+5, r26	; 0x05
    1010:	63 cf       	rjmp	.-314    	; 0xed8 <.L114>

00001012 <vfscanf>:
    1012:	a6 e0       	ldi	r26, 0x06	; 6
    1014:	b0 e0       	ldi	r27, 0x00	; 0
    1016:	ef e0       	ldi	r30, 0x0F	; 15
    1018:	f8 e0       	ldi	r31, 0x08	; 8
    101a:	0c 94 3b 0a 	jmp	0x1476	; 0x1476 <.Loc.3>

0000101e <.L1^B8>:
    101e:	5c 01       	movw	r10, r24
    1020:	6d 83       	std	Y+5, r22	; 0x05
    1022:	7e 83       	std	Y+6, r23	; 0x06
    1024:	84 2e       	mov	r8, r20
    1026:	55 2e       	mov	r5, r21
    1028:	dc 01       	movw	r26, r24
    102a:	17 96       	adiw	r26, 0x07	; 7
    102c:	1c 92       	st	X, r1
    102e:	1e 92       	st	-X, r1
    1030:	16 97       	sbiw	r26, 0x06	; 6
    1032:	91 2c       	mov	r9, r1

00001034 <.L159>:
    1034:	d5 01       	movw	r26, r10
    1036:	13 96       	adiw	r26, 0x03	; 3
    1038:	fc 90       	ld	r15, X
    103a:	ed 81       	ldd	r30, Y+5	; 0x05
    103c:	fe 81       	ldd	r31, Y+6	; 0x06
    103e:	f3 fc       	sbrc	r15, 3
    1040:	85 91       	lpm	r24, Z+
    1042:	f3 fe       	sbrs	r15, 3
    1044:	81 91       	ld	r24, Z+
    1046:	18 2f       	mov	r17, r24
    1048:	fe 83       	std	Y+6, r31	; 0x06
    104a:	ed 83       	std	Y+5, r30	; 0x05
    104c:	88 23       	and	r24, r24
    104e:	f9 f0       	breq	.+62     	; 0x108e <.L242>
    1050:	90 e0       	ldi	r25, 0x00	; 0
    1052:	0e 94 47 0b 	call	0x168e	; 0x168e <isspace>
    1056:	89 2b       	or	r24, r25
    1058:	21 f0       	breq	.+8      	; 0x1062 <.L160>
    105a:	c5 01       	movw	r24, r10
    105c:	0e 94 46 05 	call	0xa8c	; 0xa8c <skip_spaces>
    1060:	e9 cf       	rjmp	.-46     	; 0x1034 <.L159>

00001062 <.L160>:
    1062:	15 32       	cpi	r17, 0x25	; 37
    1064:	51 f4       	brne	.+20     	; 0x107a <.L162>
    1066:	ed 81       	ldd	r30, Y+5	; 0x05
    1068:	fe 81       	ldd	r31, Y+6	; 0x06
    106a:	f3 fc       	sbrc	r15, 3
    106c:	15 91       	lpm	r17, Z+
    106e:	f3 fe       	sbrs	r15, 3
    1070:	11 91       	ld	r17, Z+
    1072:	fe 83       	std	Y+6, r31	; 0x06
    1074:	ed 83       	std	Y+5, r30	; 0x05
    1076:	15 32       	cpi	r17, 0x25	; 37
    1078:	69 f4       	brne	.+26     	; 0x1094 <.L163>

0000107a <.L162>:
    107a:	c5 01       	movw	r24, r10
    107c:	0e 94 79 0b 	call	0x16f2	; 0x16f2 <fgetc>
    1080:	97 fd       	sbrc	r25, 7
    1082:	a6 c0       	rjmp	.+332    	; 0x11d0 <.L164>
    1084:	18 17       	cp	r17, r24
    1086:	b1 f2       	breq	.-84     	; 0x1034 <.L159>
    1088:	b5 01       	movw	r22, r10
    108a:	0e 94 e7 0b 	call	0x17ce	; 0x17ce <ungetc>

0000108e <.L242>:
    108e:	89 2d       	mov	r24, r9
    1090:	90 e0       	ldi	r25, 0x00	; 0
    1092:	a2 c0       	rjmp	.+324    	; 0x11d8 <.L158>

00001094 <.L163>:
    1094:	00 e0       	ldi	r16, 0x00	; 0
    1096:	1a 32       	cpi	r17, 0x2A	; 42
    1098:	49 f4       	brne	.+18     	; 0x10ac <.L166>
    109a:	ed 81       	ldd	r30, Y+5	; 0x05
    109c:	fe 81       	ldd	r31, Y+6	; 0x06
    109e:	f3 fc       	sbrc	r15, 3
    10a0:	15 91       	lpm	r17, Z+
    10a2:	f3 fe       	sbrs	r15, 3
    10a4:	11 91       	ld	r17, Z+
    10a6:	fe 83       	std	Y+6, r31	; 0x06
    10a8:	ed 83       	std	Y+5, r30	; 0x05
    10aa:	01 e0       	ldi	r16, 0x01	; 1

000010ac <.L166>:
    10ac:	d1 2c       	mov	r13, r1
    10ae:	c1 2c       	mov	r12, r1

000010b0 <.L167>:
    10b0:	20 ed       	ldi	r18, 0xD0	; 208
    10b2:	21 0f       	add	r18, r17
    10b4:	2a 30       	cpi	r18, 0x0A	; 10
    10b6:	68 f1       	brcs	.+90     	; 0x1112 <.L168>
    10b8:	01 ff       	sbrs	r16, 1
    10ba:	42 c0       	rjmp	.+132    	; 0x1140 <.L198>
    10bc:	c1 14       	cp	r12, r1
    10be:	d1 04       	cpc	r13, r1
    10c0:	31 f3       	breq	.-52     	; 0x108e <.L242>

000010c2 <.L169>:
    10c2:	18 36       	cpi	r17, 0x68	; 104
    10c4:	09 f4       	brne	.+2      	; 0x10c8 <L0^A+0x2>

000010c6 <L0^A>:
    10c6:	40 c0       	rjmp	.+128    	; 0x1148 <.L170>
    10c8:	1c 36       	cpi	r17, 0x6C	; 108
    10ca:	09 f4       	brne	.+2      	; 0x10ce <.L172>

000010cc <L0^A>:
    10cc:	49 c0       	rjmp	.+146    	; 0x1160 <.L171>

000010ce <.L172>:
    10ce:	11 23       	and	r17, r17
    10d0:	f1 f2       	breq	.-68     	; 0x108e <.L242>
    10d2:	61 2f       	mov	r22, r17
    10d4:	70 e0       	ldi	r23, 0x00	; 0
    10d6:	8a e6       	ldi	r24, 0x6A	; 106
    10d8:	91 e0       	ldi	r25, 0x01	; 1
    10da:	0e 94 58 0b 	call	0x16b0	; 0x16b0 <strchr_P>
    10de:	89 2b       	or	r24, r25
    10e0:	b1 f2       	breq	.-84     	; 0x108e <.L242>
    10e2:	f1 2c       	mov	r15, r1
    10e4:	e1 2c       	mov	r14, r1
    10e6:	00 fd       	sbrc	r16, 0
    10e8:	06 c0       	rjmp	.+12     	; 0x10f6 <.L174>
    10ea:	e8 2d       	mov	r30, r8
    10ec:	f5 2d       	mov	r31, r5
    10ee:	e1 90       	ld	r14, Z+
    10f0:	f1 90       	ld	r15, Z+
    10f2:	8e 2e       	mov	r8, r30
    10f4:	5f 2e       	mov	r5, r31

000010f6 <.L174>:
    10f6:	1e 36       	cpi	r17, 0x6E	; 110
    10f8:	09 f0       	breq	.+2      	; 0x10fc <L0^A+0x2>

000010fa <L0^A>:
    10fa:	3c c0       	rjmp	.+120    	; 0x1174 <.L175>
    10fc:	d5 01       	movw	r26, r10
    10fe:	16 96       	adiw	r26, 0x06	; 6
    1100:	4d 91       	ld	r20, X+
    1102:	5c 91       	ld	r21, X
    1104:	70 e0       	ldi	r23, 0x00	; 0
    1106:	60 e0       	ldi	r22, 0x00	; 0
    1108:	20 2f       	mov	r18, r16
    110a:	c7 01       	movw	r24, r14
    110c:	0e 94 00 05 	call	0xa00	; 0xa00 <putval>
    1110:	91 cf       	rjmp	.-222    	; 0x1034 <.L159>

00001112 <.L168>:
    1112:	02 60       	ori	r16, 0x02	; 2
    1114:	c6 01       	movw	r24, r12
    1116:	b0 e0       	ldi	r27, 0x00	; 0
    1118:	a0 e0       	ldi	r26, 0x00	; 0
    111a:	89 83       	std	Y+1, r24	; 0x01
    111c:	9a 83       	std	Y+2, r25	; 0x02
    111e:	ab 83       	std	Y+3, r26	; 0x03
    1120:	bc 83       	std	Y+4, r27	; 0x04
    1122:	40 e2       	ldi	r20, 0x20	; 32
    1124:	b6 01       	movw	r22, r12
    1126:	cd 01       	movw	r24, r26
    1128:	0e 94 0e 05 	call	0xa1c	; 0xa1c <mulacc>
    112c:	6b 01       	movw	r12, r22
    112e:	ed 81       	ldd	r30, Y+5	; 0x05
    1130:	fe 81       	ldd	r31, Y+6	; 0x06
    1132:	f3 fc       	sbrc	r15, 3
    1134:	15 91       	lpm	r17, Z+
    1136:	f3 fe       	sbrs	r15, 3
    1138:	11 91       	ld	r17, Z+
    113a:	fe 83       	std	Y+6, r31	; 0x06
    113c:	ed 83       	std	Y+5, r30	; 0x05
    113e:	b8 cf       	rjmp	.-144    	; 0x10b0 <.L167>

00001140 <.L198>:
    1140:	cc 24       	eor	r12, r12
    1142:	ca 94       	dec	r12
    1144:	dc 2c       	mov	r13, r12
    1146:	bd cf       	rjmp	.-134    	; 0x10c2 <.L169>

00001148 <.L170>:
    1148:	ed 81       	ldd	r30, Y+5	; 0x05
    114a:	fe 81       	ldd	r31, Y+6	; 0x06
    114c:	f3 fc       	sbrc	r15, 3
    114e:	15 91       	lpm	r17, Z+
    1150:	f3 fe       	sbrs	r15, 3
    1152:	11 91       	ld	r17, Z+
    1154:	fe 83       	std	Y+6, r31	; 0x06
    1156:	ed 83       	std	Y+5, r30	; 0x05
    1158:	18 36       	cpi	r17, 0x68	; 104
    115a:	09 f0       	breq	.+2      	; 0x115e <L0^A+0x2>

0000115c <L0^A>:
    115c:	b8 cf       	rjmp	.-144    	; 0x10ce <.L172>
    115e:	08 60       	ori	r16, 0x08	; 8

00001160 <.L171>:
    1160:	04 60       	ori	r16, 0x04	; 4
    1162:	ed 81       	ldd	r30, Y+5	; 0x05
    1164:	fe 81       	ldd	r31, Y+6	; 0x06
    1166:	f3 fc       	sbrc	r15, 3
    1168:	15 91       	lpm	r17, Z+
    116a:	f3 fe       	sbrs	r15, 3
    116c:	11 91       	ld	r17, Z+
    116e:	fe 83       	std	Y+6, r31	; 0x06
    1170:	ed 83       	std	Y+5, r30	; 0x05
    1172:	ad cf       	rjmp	.-166    	; 0x10ce <.L172>

00001174 <.L175>:
    1174:	13 36       	cpi	r17, 0x63	; 99
    1176:	c1 f4       	brne	.+48     	; 0x11a8 <.L176>
    1178:	01 fd       	sbrc	r16, 1
    117a:	03 c0       	rjmp	.+6      	; 0x1182 <.L179>
    117c:	cc 24       	eor	r12, r12
    117e:	c3 94       	inc	r12
    1180:	d1 2c       	mov	r13, r1

00001182 <.L179>:
    1182:	c5 01       	movw	r24, r10
    1184:	0e 94 79 0b 	call	0x16f2	; 0x16f2 <fgetc>
    1188:	97 fd       	sbrc	r25, 7
    118a:	22 c0       	rjmp	.+68     	; 0x11d0 <.L164>
    118c:	e1 14       	cp	r14, r1
    118e:	f1 04       	cpc	r15, r1
    1190:	19 f0       	breq	.+6      	; 0x1198 <.L178>
    1192:	f7 01       	movw	r30, r14
    1194:	81 93       	st	Z+, r24
    1196:	7f 01       	movw	r14, r30

00001198 <.L178>:
    1198:	b1 e0       	ldi	r27, 0x01	; 1
    119a:	cb 1a       	sub	r12, r27
    119c:	d1 08       	sbc	r13, r1
    119e:	89 f7       	brne	.-30     	; 0x1182 <.L179>

000011a0 <.L180>:
    11a0:	00 fd       	sbrc	r16, 0
    11a2:	48 cf       	rjmp	.-368    	; 0x1034 <.L159>
    11a4:	93 94       	inc	r9
    11a6:	46 cf       	rjmp	.-372    	; 0x1034 <.L159>

000011a8 <.L176>:
    11a8:	1b 35       	cpi	r17, 0x5B	; 91
    11aa:	d1 f4       	brne	.+52     	; 0x11e0 <.L181>
    11ac:	2d 81       	ldd	r18, Y+5	; 0x05
    11ae:	3e 81       	ldd	r19, Y+6	; 0x06
    11b0:	a7 01       	movw	r20, r14
    11b2:	b6 01       	movw	r22, r12
    11b4:	c5 01       	movw	r24, r10
    11b6:	0e 94 f0 05 	call	0xbe0	; 0xbe0 <conv_brk>
    11ba:	8d 83       	std	Y+5, r24	; 0x05
    11bc:	9e 83       	std	Y+6, r25	; 0x06
    11be:	ed 81       	ldd	r30, Y+5	; 0x05
    11c0:	fe 81       	ldd	r31, Y+6	; 0x06
    11c2:	ef 2b       	or	r30, r31
    11c4:	69 f7       	brne	.-38     	; 0x11a0 <.L180>

000011c6 <.L241>:
    11c6:	f5 01       	movw	r30, r10
    11c8:	83 81       	ldd	r24, Z+3	; 0x03
    11ca:	80 73       	andi	r24, 0x30	; 48
    11cc:	09 f4       	brne	.+2      	; 0x11d0 <.L164>

000011ce <L0^A>:
    11ce:	5f cf       	rjmp	.-322    	; 0x108e <.L242>

000011d0 <.L164>:
    11d0:	8f ef       	ldi	r24, 0xFF	; 255
    11d2:	9f ef       	ldi	r25, 0xFF	; 255
    11d4:	91 10       	cpse	r9, r1
    11d6:	5b cf       	rjmp	.-330    	; 0x108e <.L242>

000011d8 <.L158>:
    11d8:	26 96       	adiw	r28, 0x06	; 6
    11da:	ef e0       	ldi	r30, 0x0F	; 15
    11dc:	0c 94 57 0a 	jmp	0x14ae	; 0x14ae <.Loc.3>

000011e0 <.L181>:
    11e0:	c5 01       	movw	r24, r10
    11e2:	0e 94 46 05 	call	0xa8c	; 0xa8c <skip_spaces>
    11e6:	97 fd       	sbrc	r25, 7
    11e8:	f3 cf       	rjmp	.-26     	; 0x11d0 <.L164>
    11ea:	1f 36       	cpi	r17, 0x6F	; 111
    11ec:	09 f4       	brne	.+2      	; 0x11f0 <L0^A+0x2>

000011ee <L0^A>:
    11ee:	43 c0       	rjmp	.+134    	; 0x1276 <.L184>
    11f0:	68 f4       	brcc	.+26     	; 0x120c <.L185>
    11f2:	19 36       	cpi	r17, 0x69	; 105
    11f4:	89 f0       	breq	.+34     	; 0x1218 <.L186>
    11f6:	20 f4       	brcc	.+8      	; 0x1200 <.L187>
    11f8:	18 35       	cpi	r17, 0x58	; 88
    11fa:	69 f0       	breq	.+26     	; 0x1216 <.L188>
    11fc:	14 36       	cpi	r17, 0x64	; 100
    11fe:	c9 f1       	breq	.+114    	; 0x1272 <.L189>

00001200 <.L187>:
    1200:	a7 01       	movw	r20, r14
    1202:	b6 01       	movw	r22, r12
    1204:	c5 01       	movw	r24, r10
    1206:	0e 94 93 06 	call	0xd26	; 0xd26 <conv_flt>
    120a:	0c c0       	rjmp	.+24     	; 0x1224 <.L183>

0000120c <.L185>:
    120c:	13 37       	cpi	r17, 0x73	; 115
    120e:	e1 f0       	breq	.+56     	; 0x1248 <.L190>
    1210:	60 f4       	brcc	.+24     	; 0x122a <.L191>
    1212:	10 37       	cpi	r17, 0x70	; 112
    1214:	a9 f7       	brne	.-22     	; 0x1200 <.L187>

00001216 <.L188>:
    1216:	00 64       	ori	r16, 0x40	; 64

00001218 <.L186>:
    1218:	20 2f       	mov	r18, r16
    121a:	a7 01       	movw	r20, r14
    121c:	b6 01       	movw	r22, r12
    121e:	c5 01       	movw	r24, r10
    1220:	0e 94 5f 05 	call	0xabe	; 0xabe <conv_int>

00001224 <.L183>:
    1224:	81 11       	cpse	r24, r1
    1226:	bc cf       	rjmp	.-136    	; 0x11a0 <.L180>
    1228:	ce cf       	rjmp	.-100    	; 0x11c6 <.L241>

0000122a <.L191>:
    122a:	15 37       	cpi	r17, 0x75	; 117
    122c:	11 f1       	breq	.+68     	; 0x1272 <.L189>
    122e:	18 37       	cpi	r17, 0x78	; 120
    1230:	91 f3       	breq	.-28     	; 0x1216 <.L188>
    1232:	e6 cf       	rjmp	.-52     	; 0x1200 <.L187>

00001234 <.L193>:
    1234:	e1 14       	cp	r14, r1
    1236:	f1 04       	cpc	r15, r1
    1238:	19 f0       	breq	.+6      	; 0x1240 <.L194>
    123a:	f7 01       	movw	r30, r14
    123c:	61 92       	st	Z+, r6
    123e:	7f 01       	movw	r14, r30

00001240 <.L194>:
    1240:	f1 e0       	ldi	r31, 0x01	; 1
    1242:	cf 1a       	sub	r12, r31
    1244:	d1 08       	sbc	r13, r1
    1246:	71 f0       	breq	.+28     	; 0x1264 <.L192>

00001248 <.L190>:
    1248:	c5 01       	movw	r24, r10
    124a:	0e 94 79 0b 	call	0x16f2	; 0x16f2 <fgetc>
    124e:	3c 01       	movw	r6, r24
    1250:	97 fd       	sbrc	r25, 7
    1252:	08 c0       	rjmp	.+16     	; 0x1264 <.L192>
    1254:	0e 94 47 0b 	call	0x168e	; 0x168e <isspace>
    1258:	89 2b       	or	r24, r25
    125a:	61 f3       	breq	.-40     	; 0x1234 <.L193>
    125c:	b5 01       	movw	r22, r10
    125e:	c3 01       	movw	r24, r6
    1260:	0e 94 e7 0b 	call	0x17ce	; 0x17ce <ungetc>

00001264 <.L192>:
    1264:	e1 14       	cp	r14, r1
    1266:	f1 04       	cpc	r15, r1
    1268:	09 f4       	brne	.+2      	; 0x126c <L0^A+0x2>

0000126a <L0^A>:
    126a:	9a cf       	rjmp	.-204    	; 0x11a0 <.L180>
    126c:	d7 01       	movw	r26, r14
    126e:	1c 92       	st	X, r1
    1270:	97 cf       	rjmp	.-210    	; 0x11a0 <.L180>

00001272 <.L189>:
    1272:	00 62       	ori	r16, 0x20	; 32
    1274:	d1 cf       	rjmp	.-94     	; 0x1218 <.L186>

00001276 <.L184>:
    1276:	00 61       	ori	r16, 0x10	; 16
    1278:	cf cf       	rjmp	.-98     	; 0x1218 <.L186>

0000127a <__floatunsisf>:
    127a:	e8 94       	clt
    127c:	09 c0       	rjmp	.+18     	; 0x1290 <.L1^B1>

0000127e <__floatsisf>:
    127e:	97 fb       	bst	r25, 7
    1280:	3e f4       	brtc	.+14     	; 0x1290 <.L1^B1>
    1282:	90 95       	com	r25
    1284:	80 95       	com	r24
    1286:	70 95       	com	r23
    1288:	61 95       	neg	r22
    128a:	7f 4f       	sbci	r23, 0xFF	; 255
    128c:	8f 4f       	sbci	r24, 0xFF	; 255
    128e:	9f 4f       	sbci	r25, 0xFF	; 255

00001290 <.L1^B1>:
    1290:	99 23       	and	r25, r25
    1292:	a9 f0       	breq	.+42     	; 0x12be <.L4^B1>
    1294:	f9 2f       	mov	r31, r25
    1296:	96 e9       	ldi	r25, 0x96	; 150
    1298:	bb 27       	eor	r27, r27

0000129a <.L2^B1>:
    129a:	93 95       	inc	r25
    129c:	f6 95       	lsr	r31
    129e:	87 95       	ror	r24
    12a0:	77 95       	ror	r23
    12a2:	67 95       	ror	r22
    12a4:	b7 95       	ror	r27
    12a6:	f1 11       	cpse	r31, r1
    12a8:	f8 cf       	rjmp	.-16     	; 0x129a <.L2^B1>
    12aa:	fa f4       	brpl	.+62     	; 0x12ea <.L_pack>
    12ac:	bb 0f       	add	r27, r27
    12ae:	11 f4       	brne	.+4      	; 0x12b4 <.L3^B1>
    12b0:	60 ff       	sbrs	r22, 0
    12b2:	1b c0       	rjmp	.+54     	; 0x12ea <.L_pack>

000012b4 <.L3^B1>:
    12b4:	6f 5f       	subi	r22, 0xFF	; 255
    12b6:	7f 4f       	sbci	r23, 0xFF	; 255
    12b8:	8f 4f       	sbci	r24, 0xFF	; 255
    12ba:	9f 4f       	sbci	r25, 0xFF	; 255
    12bc:	16 c0       	rjmp	.+44     	; 0x12ea <.L_pack>

000012be <.L4^B1>:
    12be:	88 23       	and	r24, r24
    12c0:	11 f0       	breq	.+4      	; 0x12c6 <.L5^B1>
    12c2:	96 e9       	ldi	r25, 0x96	; 150
    12c4:	11 c0       	rjmp	.+34     	; 0x12e8 <.L8^B1>

000012c6 <.L5^B1>:
    12c6:	77 23       	and	r23, r23
    12c8:	21 f0       	breq	.+8      	; 0x12d2 <.L6^B1>
    12ca:	9e e8       	ldi	r25, 0x8E	; 142
    12cc:	87 2f       	mov	r24, r23
    12ce:	76 2f       	mov	r23, r22
    12d0:	05 c0       	rjmp	.+10     	; 0x12dc <.L7^B1>

000012d2 <.L6^B1>:
    12d2:	66 23       	and	r22, r22
    12d4:	71 f0       	breq	.+28     	; 0x12f2 <.L9^B1>
    12d6:	96 e8       	ldi	r25, 0x86	; 134
    12d8:	86 2f       	mov	r24, r22
    12da:	70 e0       	ldi	r23, 0x00	; 0

000012dc <.L7^B1>:
    12dc:	60 e0       	ldi	r22, 0x00	; 0
    12de:	2a f0       	brmi	.+10     	; 0x12ea <.L_pack>

000012e0 <.L10^B1>:
    12e0:	9a 95       	dec	r25
    12e2:	66 0f       	add	r22, r22
    12e4:	77 1f       	adc	r23, r23
    12e6:	88 1f       	adc	r24, r24

000012e8 <.L8^B1>:
    12e8:	da f7       	brpl	.-10     	; 0x12e0 <.L10^B1>

000012ea <.L_pack>:
    12ea:	88 0f       	add	r24, r24
    12ec:	96 95       	lsr	r25
    12ee:	87 95       	ror	r24
    12f0:	97 f9       	bld	r25, 7

000012f2 <.L9^B1>:
    12f2:	08 95       	ret

000012f4 <__mulsf3>:
    12f4:	0e 94 8d 09 	call	0x131a	; 0x131a <__mulsf3x>
    12f8:	0c 94 fe 09 	jmp	0x13fc	; 0x13fc <__fp_round>

000012fc <.L0^B1>:
    12fc:	0e 94 f0 09 	call	0x13e0	; 0x13e0 <__fp_pscA>
    1300:	38 f0       	brcs	.+14     	; 0x1310 <.L1^B1>
    1302:	0e 94 f7 09 	call	0x13ee	; 0x13ee <__fp_pscB>
    1306:	20 f0       	brcs	.+8      	; 0x1310 <.L1^B1>
    1308:	95 23       	and	r25, r21
    130a:	11 f0       	breq	.+4      	; 0x1310 <.L1^B1>
    130c:	0c 94 e7 09 	jmp	0x13ce	; 0x13ce <__fp_inf>

00001310 <.L1^B1>:
    1310:	0c 94 ed 09 	jmp	0x13da	; 0x13da <__fp_nan>

00001314 <.L2^B1>:
    1314:	11 24       	eor	r1, r1
    1316:	0c 94 32 0a 	jmp	0x1464	; 0x1464 <__fp_szero>

0000131a <__mulsf3x>:
    131a:	0e 94 0f 0a 	call	0x141e	; 0x141e <__fp_split3>
    131e:	70 f3       	brcs	.-36     	; 0x12fc <.L0^B1>

00001320 <__mulsf3_pse>:
    1320:	95 9f       	mul	r25, r21
    1322:	c1 f3       	breq	.-16     	; 0x1314 <.L2^B1>
    1324:	95 0f       	add	r25, r21
    1326:	50 e0       	ldi	r21, 0x00	; 0
    1328:	55 1f       	adc	r21, r21
    132a:	62 9f       	mul	r22, r18
    132c:	f0 01       	movw	r30, r0
    132e:	72 9f       	mul	r23, r18
    1330:	bb 27       	eor	r27, r27
    1332:	f0 0d       	add	r31, r0
    1334:	b1 1d       	adc	r27, r1
    1336:	63 9f       	mul	r22, r19
    1338:	aa 27       	eor	r26, r26
    133a:	f0 0d       	add	r31, r0
    133c:	b1 1d       	adc	r27, r1
    133e:	aa 1f       	adc	r26, r26
    1340:	64 9f       	mul	r22, r20
    1342:	66 27       	eor	r22, r22
    1344:	b0 0d       	add	r27, r0
    1346:	a1 1d       	adc	r26, r1
    1348:	66 1f       	adc	r22, r22
    134a:	82 9f       	mul	r24, r18
    134c:	22 27       	eor	r18, r18
    134e:	b0 0d       	add	r27, r0
    1350:	a1 1d       	adc	r26, r1
    1352:	62 1f       	adc	r22, r18
    1354:	73 9f       	mul	r23, r19
    1356:	b0 0d       	add	r27, r0
    1358:	a1 1d       	adc	r26, r1
    135a:	62 1f       	adc	r22, r18
    135c:	83 9f       	mul	r24, r19
    135e:	a0 0d       	add	r26, r0
    1360:	61 1d       	adc	r22, r1
    1362:	22 1f       	adc	r18, r18
    1364:	74 9f       	mul	r23, r20
    1366:	33 27       	eor	r19, r19
    1368:	a0 0d       	add	r26, r0
    136a:	61 1d       	adc	r22, r1
    136c:	23 1f       	adc	r18, r19
    136e:	84 9f       	mul	r24, r20
    1370:	60 0d       	add	r22, r0
    1372:	21 1d       	adc	r18, r1
    1374:	82 2f       	mov	r24, r18
    1376:	76 2f       	mov	r23, r22
    1378:	6a 2f       	mov	r22, r26
    137a:	11 24       	eor	r1, r1
    137c:	9f 57       	subi	r25, 0x7F	; 127
    137e:	50 40       	sbci	r21, 0x00	; 0
    1380:	9a f0       	brmi	.+38     	; 0x13a8 <.L13^B1>
    1382:	f1 f0       	breq	.+60     	; 0x13c0 <.L15^B1>

00001384 <.L10^B1>:
    1384:	88 23       	and	r24, r24
    1386:	4a f0       	brmi	.+18     	; 0x139a <.L11^B1>
    1388:	ee 0f       	add	r30, r30
    138a:	ff 1f       	adc	r31, r31
    138c:	bb 1f       	adc	r27, r27
    138e:	66 1f       	adc	r22, r22
    1390:	77 1f       	adc	r23, r23
    1392:	88 1f       	adc	r24, r24
    1394:	91 50       	subi	r25, 0x01	; 1
    1396:	50 40       	sbci	r21, 0x00	; 0
    1398:	a9 f7       	brne	.-22     	; 0x1384 <.L10^B1>

0000139a <.L11^B1>:
    139a:	9e 3f       	cpi	r25, 0xFE	; 254
    139c:	51 05       	cpc	r21, r1
    139e:	80 f0       	brcs	.+32     	; 0x13c0 <.L15^B1>
    13a0:	0c 94 e7 09 	jmp	0x13ce	; 0x13ce <__fp_inf>

000013a4 <.L12^B1>:
    13a4:	0c 94 32 0a 	jmp	0x1464	; 0x1464 <__fp_szero>

000013a8 <.L13^B1>:
    13a8:	5f 3f       	cpi	r21, 0xFF	; 255
    13aa:	e4 f3       	brlt	.-8      	; 0x13a4 <.L12^B1>
    13ac:	98 3e       	cpi	r25, 0xE8	; 232
    13ae:	d4 f3       	brlt	.-12     	; 0x13a4 <.L12^B1>

000013b0 <.L14^B1>:
    13b0:	86 95       	lsr	r24
    13b2:	77 95       	ror	r23
    13b4:	67 95       	ror	r22
    13b6:	b7 95       	ror	r27
    13b8:	f7 95       	ror	r31
    13ba:	e7 95       	ror	r30
    13bc:	9f 5f       	subi	r25, 0xFF	; 255
    13be:	c1 f7       	brne	.-16     	; 0x13b0 <.L14^B1>

000013c0 <.L15^B1>:
    13c0:	fe 2b       	or	r31, r30
    13c2:	88 0f       	add	r24, r24
    13c4:	91 1d       	adc	r25, r1
    13c6:	96 95       	lsr	r25
    13c8:	87 95       	ror	r24
    13ca:	97 f9       	bld	r25, 7
    13cc:	08 95       	ret

000013ce <__fp_inf>:
    13ce:	97 f9       	bld	r25, 7
    13d0:	9f 67       	ori	r25, 0x7F	; 127
    13d2:	80 e8       	ldi	r24, 0x80	; 128
    13d4:	70 e0       	ldi	r23, 0x00	; 0
    13d6:	60 e0       	ldi	r22, 0x00	; 0
    13d8:	08 95       	ret

000013da <__fp_nan>:
    13da:	9f ef       	ldi	r25, 0xFF	; 255
    13dc:	80 ec       	ldi	r24, 0xC0	; 192
    13de:	08 95       	ret

000013e0 <__fp_pscA>:
    13e0:	00 24       	eor	r0, r0
    13e2:	0a 94       	dec	r0
    13e4:	16 16       	cp	r1, r22
    13e6:	17 06       	cpc	r1, r23
    13e8:	18 06       	cpc	r1, r24
    13ea:	09 06       	cpc	r0, r25
    13ec:	08 95       	ret

000013ee <__fp_pscB>:
    13ee:	00 24       	eor	r0, r0
    13f0:	0a 94       	dec	r0
    13f2:	12 16       	cp	r1, r18
    13f4:	13 06       	cpc	r1, r19
    13f6:	14 06       	cpc	r1, r20
    13f8:	05 06       	cpc	r0, r21
    13fa:	08 95       	ret

000013fc <__fp_round>:
    13fc:	09 2e       	mov	r0, r25
    13fe:	03 94       	inc	r0
    1400:	00 0c       	add	r0, r0
    1402:	11 f4       	brne	.+4      	; 0x1408 <.L1^B1>
    1404:	88 23       	and	r24, r24
    1406:	52 f0       	brmi	.+20     	; 0x141c <.L3^B1>

00001408 <.L1^B1>:
    1408:	bb 0f       	add	r27, r27
    140a:	40 f4       	brcc	.+16     	; 0x141c <.L3^B1>
    140c:	bf 2b       	or	r27, r31
    140e:	11 f4       	brne	.+4      	; 0x1414 <.L2^B1>
    1410:	60 ff       	sbrs	r22, 0
    1412:	04 c0       	rjmp	.+8      	; 0x141c <.L3^B1>

00001414 <.L2^B1>:
    1414:	6f 5f       	subi	r22, 0xFF	; 255
    1416:	7f 4f       	sbci	r23, 0xFF	; 255
    1418:	8f 4f       	sbci	r24, 0xFF	; 255
    141a:	9f 4f       	sbci	r25, 0xFF	; 255

0000141c <.L3^B1>:
    141c:	08 95       	ret

0000141e <__fp_split3>:
    141e:	57 fd       	sbrc	r21, 7
    1420:	90 58       	subi	r25, 0x80	; 128
    1422:	44 0f       	add	r20, r20
    1424:	55 1f       	adc	r21, r21
    1426:	59 f0       	breq	.+22     	; 0x143e <.L4^B1>
    1428:	5f 3f       	cpi	r21, 0xFF	; 255
    142a:	71 f0       	breq	.+28     	; 0x1448 <.L5^B1>

0000142c <.L1^B1>:
    142c:	47 95       	ror	r20

0000142e <__fp_splitA>:
    142e:	88 0f       	add	r24, r24
    1430:	97 fb       	bst	r25, 7
    1432:	99 1f       	adc	r25, r25
    1434:	61 f0       	breq	.+24     	; 0x144e <.L6^B1>
    1436:	9f 3f       	cpi	r25, 0xFF	; 255
    1438:	79 f0       	breq	.+30     	; 0x1458 <.L7^B1>

0000143a <.L3^B1>:
    143a:	87 95       	ror	r24
    143c:	08 95       	ret

0000143e <.L4^B1>:
    143e:	12 16       	cp	r1, r18
    1440:	13 06       	cpc	r1, r19
    1442:	14 06       	cpc	r1, r20
    1444:	55 1f       	adc	r21, r21
    1446:	f2 cf       	rjmp	.-28     	; 0x142c <.L1^B1>

00001448 <.L5^B1>:
    1448:	46 95       	lsr	r20
    144a:	f1 df       	rcall	.-30     	; 0x142e <__fp_splitA>
    144c:	08 c0       	rjmp	.+16     	; 0x145e <.L8^B1>

0000144e <.L6^B1>:
    144e:	16 16       	cp	r1, r22
    1450:	17 06       	cpc	r1, r23
    1452:	18 06       	cpc	r1, r24
    1454:	99 1f       	adc	r25, r25
    1456:	f1 cf       	rjmp	.-30     	; 0x143a <.L3^B1>

00001458 <.L7^B1>:
    1458:	86 95       	lsr	r24
    145a:	71 05       	cpc	r23, r1
    145c:	61 05       	cpc	r22, r1

0000145e <.L8^B1>:
    145e:	08 94       	sec
    1460:	08 95       	ret

00001462 <__fp_zero>:
    1462:	e8 94       	clt

00001464 <__fp_szero>:
    1464:	bb 27       	eor	r27, r27
    1466:	66 27       	eor	r22, r22
    1468:	77 27       	eor	r23, r23
    146a:	cb 01       	movw	r24, r22
    146c:	97 f9       	bld	r25, 7
    146e:	08 95       	ret

00001470 <__prologue_saves__>:
    1470:	2f 92       	push	r2

00001472 <.Loc.1>:
    1472:	3f 92       	push	r3

00001474 <.Loc.2>:
    1474:	4f 92       	push	r4

00001476 <.Loc.3>:
    1476:	5f 92       	push	r5

00001478 <.Loc.4>:
    1478:	6f 92       	push	r6

0000147a <.Loc.5>:
    147a:	7f 92       	push	r7

0000147c <.Loc.6>:
    147c:	8f 92       	push	r8

0000147e <.Loc.7>:
    147e:	9f 92       	push	r9

00001480 <.Loc.8>:
    1480:	af 92       	push	r10

00001482 <.Loc.9>:
    1482:	bf 92       	push	r11

00001484 <.Loc.10>:
    1484:	cf 92       	push	r12

00001486 <.Loc.11>:
    1486:	df 92       	push	r13

00001488 <.Loc.12>:
    1488:	ef 92       	push	r14

0000148a <.Loc.13>:
    148a:	ff 92       	push	r15

0000148c <.Loc.14>:
    148c:	0f 93       	push	r16

0000148e <.Loc.15>:
    148e:	1f 93       	push	r17

00001490 <.Loc.16>:
    1490:	cf 93       	push	r28

00001492 <.Loc.17>:
    1492:	df 93       	push	r29

00001494 <.Loc.18>:
    1494:	cd b7       	in	r28, 0x3d	; 61

00001496 <.Loc.19>:
    1496:	de b7       	in	r29, 0x3e	; 62

00001498 <.Loc.20>:
    1498:	ca 1b       	sub	r28, r26

0000149a <.Loc.21>:
    149a:	db 0b       	sbc	r29, r27

0000149c <.Loc.22>:
    149c:	0f b6       	in	r0, 0x3f	; 63

0000149e <.Loc.23>:
    149e:	f8 94       	cli

000014a0 <.Loc.24>:
    14a0:	de bf       	out	0x3e, r29	; 62

000014a2 <.Loc.25>:
    14a2:	0f be       	out	0x3f, r0	; 63

000014a4 <.Loc.26>:
    14a4:	cd bf       	out	0x3d, r28	; 61

000014a6 <.Loc.27>:
    14a6:	09 94       	ijmp

000014a8 <__epilogue_restores__>:
    14a8:	2a 88       	ldd	r2, Y+18	; 0x12

000014aa <.Loc.1>:
    14aa:	39 88       	ldd	r3, Y+17	; 0x11

000014ac <.Loc.2>:
    14ac:	48 88       	ldd	r4, Y+16	; 0x10

000014ae <.Loc.3>:
    14ae:	5f 84       	ldd	r5, Y+15	; 0x0f

000014b0 <.Loc.4>:
    14b0:	6e 84       	ldd	r6, Y+14	; 0x0e

000014b2 <.Loc.5>:
    14b2:	7d 84       	ldd	r7, Y+13	; 0x0d

000014b4 <.Loc.6>:
    14b4:	8c 84       	ldd	r8, Y+12	; 0x0c

000014b6 <.Loc.7>:
    14b6:	9b 84       	ldd	r9, Y+11	; 0x0b

000014b8 <.Loc.8>:
    14b8:	aa 84       	ldd	r10, Y+10	; 0x0a

000014ba <.Loc.9>:
    14ba:	b9 84       	ldd	r11, Y+9	; 0x09

000014bc <.Loc.10>:
    14bc:	c8 84       	ldd	r12, Y+8	; 0x08

000014be <.Loc.11>:
    14be:	df 80       	ldd	r13, Y+7	; 0x07

000014c0 <.Loc.12>:
    14c0:	ee 80       	ldd	r14, Y+6	; 0x06

000014c2 <.Loc.13>:
    14c2:	fd 80       	ldd	r15, Y+5	; 0x05

000014c4 <.Loc.14>:
    14c4:	0c 81       	ldd	r16, Y+4	; 0x04

000014c6 <.Loc.15>:
    14c6:	1b 81       	ldd	r17, Y+3	; 0x03

000014c8 <.Loc.16>:
    14c8:	aa 81       	ldd	r26, Y+2	; 0x02

000014ca <.Loc.17>:
    14ca:	b9 81       	ldd	r27, Y+1	; 0x01

000014cc <.Loc.18>:
    14cc:	ce 0f       	add	r28, r30

000014ce <.Loc.19>:
    14ce:	d1 1d       	adc	r29, r1

000014d0 <.Loc.20>:
    14d0:	0f b6       	in	r0, 0x3f	; 63

000014d2 <.Loc.21>:
    14d2:	f8 94       	cli

000014d4 <.Loc.22>:
    14d4:	de bf       	out	0x3e, r29	; 62

000014d6 <.Loc.23>:
    14d6:	0f be       	out	0x3f, r0	; 63

000014d8 <.Loc.24>:
    14d8:	cd bf       	out	0x3d, r28	; 61

000014da <.Loc.25>:
    14da:	ed 01       	movw	r28, r26

000014dc <.Loc.26>:
    14dc:	08 95       	ret

000014de <__ftoa_engine>:
    14de:	28 30       	cpi	r18, 0x08	; 8
    14e0:	08 f0       	brcs	.+2      	; 0x14e4 <.L1^B1>
    14e2:	27 e0       	ldi	r18, 0x07	; 7

000014e4 <.L1^B1>:
    14e4:	33 27       	eor	r19, r19
    14e6:	da 01       	movw	r26, r20
    14e8:	99 0f       	add	r25, r25
    14ea:	31 1d       	adc	r19, r1
    14ec:	87 fd       	sbrc	r24, 7
    14ee:	91 60       	ori	r25, 0x01	; 1
    14f0:	00 96       	adiw	r24, 0x00	; 0
    14f2:	61 05       	cpc	r22, r1
    14f4:	71 05       	cpc	r23, r1
    14f6:	39 f4       	brne	.+14     	; 0x1506 <.L3^B1>
    14f8:	32 60       	ori	r19, 0x02	; 2
    14fa:	2e 5f       	subi	r18, 0xFE	; 254

000014fc <.L2^B1>:
    14fc:	3d 93       	st	X+, r19
    14fe:	30 e3       	ldi	r19, 0x30	; 48
    1500:	2a 95       	dec	r18
    1502:	e1 f7       	brne	.-8      	; 0x14fc <.L2^B1>
    1504:	08 95       	ret

00001506 <.L3^B1>:
    1506:	9f 3f       	cpi	r25, 0xFF	; 255
    1508:	30 f0       	brcs	.+12     	; 0x1516 <.L6^B1>
    150a:	80 38       	cpi	r24, 0x80	; 128
    150c:	71 05       	cpc	r23, r1
    150e:	61 05       	cpc	r22, r1
    1510:	09 f0       	breq	.+2      	; 0x1514 <.L5^B1>
    1512:	3c 5f       	subi	r19, 0xFC	; 252

00001514 <.L5^B1>:
    1514:	3c 5f       	subi	r19, 0xFC	; 252

00001516 <.L6^B1>:
    1516:	3d 93       	st	X+, r19
    1518:	91 30       	cpi	r25, 0x01	; 1
    151a:	08 f0       	brcs	.+2      	; 0x151e <.L7^B1>
    151c:	80 68       	ori	r24, 0x80	; 128

0000151e <.L7^B1>:
    151e:	91 1d       	adc	r25, r1
    1520:	df 93       	push	r29
    1522:	cf 93       	push	r28
    1524:	1f 93       	push	r17
    1526:	0f 93       	push	r16
    1528:	ff 92       	push	r15
    152a:	ef 92       	push	r14
    152c:	19 2f       	mov	r17, r25
    152e:	98 7f       	andi	r25, 0xF8	; 248
    1530:	96 95       	lsr	r25
    1532:	e9 2f       	mov	r30, r25
    1534:	96 95       	lsr	r25
    1536:	96 95       	lsr	r25
    1538:	e9 0f       	add	r30, r25
    153a:	ff 27       	eor	r31, r31
    153c:	e6 53       	subi	r30, 0x36	; 54
    153e:	ff 4f       	sbci	r31, 0xFF	; 255
    1540:	99 27       	eor	r25, r25
    1542:	33 27       	eor	r19, r19
    1544:	ee 24       	eor	r14, r14
    1546:	ff 24       	eor	r15, r15
    1548:	a7 01       	movw	r20, r14
    154a:	e7 01       	movw	r28, r14
    154c:	05 90       	lpm	r0, Z+
    154e:	08 94       	sec
    1550:	07 94       	ror	r0

00001552 <.L10^B1>:
    1552:	28 f4       	brcc	.+10     	; 0x155e <.L11^B1>
    1554:	36 0f       	add	r19, r22
    1556:	e7 1e       	adc	r14, r23
    1558:	f8 1e       	adc	r15, r24
    155a:	49 1f       	adc	r20, r25
    155c:	51 1d       	adc	r21, r1

0000155e <.L11^B1>:
    155e:	66 0f       	add	r22, r22
    1560:	77 1f       	adc	r23, r23
    1562:	88 1f       	adc	r24, r24
    1564:	99 1f       	adc	r25, r25
    1566:	06 94       	lsr	r0
    1568:	a1 f7       	brne	.-24     	; 0x1552 <.L10^B1>
    156a:	05 90       	lpm	r0, Z+
    156c:	07 94       	ror	r0

0000156e <.L12^B1>:
    156e:	28 f4       	brcc	.+10     	; 0x157a <.L13^B1>
    1570:	e7 0e       	add	r14, r23
    1572:	f8 1e       	adc	r15, r24
    1574:	49 1f       	adc	r20, r25
    1576:	56 1f       	adc	r21, r22
    1578:	c1 1d       	adc	r28, r1

0000157a <.L13^B1>:
    157a:	77 0f       	add	r23, r23
    157c:	88 1f       	adc	r24, r24
    157e:	99 1f       	adc	r25, r25
    1580:	66 1f       	adc	r22, r22
    1582:	06 94       	lsr	r0
    1584:	a1 f7       	brne	.-24     	; 0x156e <.L12^B1>
    1586:	05 90       	lpm	r0, Z+
    1588:	07 94       	ror	r0

0000158a <.L14^B1>:
    158a:	28 f4       	brcc	.+10     	; 0x1596 <.L15^B1>
    158c:	f8 0e       	add	r15, r24
    158e:	49 1f       	adc	r20, r25
    1590:	56 1f       	adc	r21, r22
    1592:	c7 1f       	adc	r28, r23
    1594:	d1 1d       	adc	r29, r1

00001596 <.L15^B1>:
    1596:	88 0f       	add	r24, r24
    1598:	99 1f       	adc	r25, r25
    159a:	66 1f       	adc	r22, r22
    159c:	77 1f       	adc	r23, r23
    159e:	06 94       	lsr	r0
    15a0:	a1 f7       	brne	.-24     	; 0x158a <.L14^B1>
    15a2:	05 90       	lpm	r0, Z+
    15a4:	07 94       	ror	r0

000015a6 <.L16^B1>:
    15a6:	20 f4       	brcc	.+8      	; 0x15b0 <.L17^B1>
    15a8:	49 0f       	add	r20, r25
    15aa:	56 1f       	adc	r21, r22
    15ac:	c7 1f       	adc	r28, r23
    15ae:	d8 1f       	adc	r29, r24

000015b0 <.L17^B1>:
    15b0:	99 0f       	add	r25, r25
    15b2:	66 1f       	adc	r22, r22
    15b4:	77 1f       	adc	r23, r23
    15b6:	88 1f       	adc	r24, r24
    15b8:	06 94       	lsr	r0
    15ba:	a9 f7       	brne	.-22     	; 0x15a6 <.L16^B1>
    15bc:	84 91       	lpm	r24, Z
    15be:	10 95       	com	r17
    15c0:	17 70       	andi	r17, 0x07	; 7
    15c2:	41 f0       	breq	.+16     	; 0x15d4 <.L19^B1>

000015c4 <.L18^B1>:
    15c4:	d6 95       	lsr	r29
    15c6:	c7 95       	ror	r28
    15c8:	57 95       	ror	r21
    15ca:	47 95       	ror	r20
    15cc:	f7 94       	ror	r15
    15ce:	e7 94       	ror	r14
    15d0:	1a 95       	dec	r17
    15d2:	c1 f7       	brne	.-16     	; 0x15c4 <.L18^B1>

000015d4 <.L19^B1>:
    15d4:	e0 e7       	ldi	r30, 0x70	; 112
    15d6:	f0 e0       	ldi	r31, 0x00	; 0
    15d8:	68 94       	set

000015da <.L_digit>:
    15da:	15 90       	lpm	r1, Z+
    15dc:	15 91       	lpm	r17, Z+
    15de:	35 91       	lpm	r19, Z+
    15e0:	65 91       	lpm	r22, Z+
    15e2:	95 91       	lpm	r25, Z+
    15e4:	05 90       	lpm	r0, Z+
    15e6:	7f e2       	ldi	r23, 0x2F	; 47

000015e8 <.L20^B1>:
    15e8:	73 95       	inc	r23
    15ea:	e1 18       	sub	r14, r1
    15ec:	f1 0a       	sbc	r15, r17
    15ee:	43 0b       	sbc	r20, r19
    15f0:	56 0b       	sbc	r21, r22
    15f2:	c9 0b       	sbc	r28, r25
    15f4:	d0 09       	sbc	r29, r0
    15f6:	c0 f7       	brcc	.-16     	; 0x15e8 <.L20^B1>
    15f8:	e1 0c       	add	r14, r1
    15fa:	f1 1e       	adc	r15, r17
    15fc:	43 1f       	adc	r20, r19
    15fe:	56 1f       	adc	r21, r22
    1600:	c9 1f       	adc	r28, r25
    1602:	d0 1d       	adc	r29, r0
    1604:	7e f4       	brtc	.+30     	; 0x1624 <.L25^B1>
    1606:	70 33       	cpi	r23, 0x30	; 48
    1608:	11 f4       	brne	.+4      	; 0x160e <.L21^B1>
    160a:	8a 95       	dec	r24
    160c:	e6 cf       	rjmp	.-52     	; 0x15da <.L_digit>

0000160e <.L21^B1>:
    160e:	e8 94       	clt
    1610:	01 50       	subi	r16, 0x01	; 1
    1612:	30 f0       	brcs	.+12     	; 0x1620 <.L23^B1>
    1614:	08 0f       	add	r16, r24
    1616:	0a f4       	brpl	.+2      	; 0x161a <.L22^B1>
    1618:	00 27       	eor	r16, r16

0000161a <.L22^B1>:
    161a:	02 17       	cp	r16, r18
    161c:	08 f4       	brcc	.+2      	; 0x1620 <.L23^B1>
    161e:	20 2f       	mov	r18, r16

00001620 <.L23^B1>:
    1620:	23 95       	inc	r18
    1622:	02 2f       	mov	r16, r18

00001624 <.L25^B1>:
    1624:	7a 33       	cpi	r23, 0x3A	; 58
    1626:	28 f0       	brcs	.+10     	; 0x1632 <.L27^B1>
    1628:	79 e3       	ldi	r23, 0x39	; 57

0000162a <.L26^B1>:
    162a:	7d 93       	st	X+, r23
    162c:	2a 95       	dec	r18
    162e:	e9 f7       	brne	.-6      	; 0x162a <.L26^B1>
    1630:	10 c0       	rjmp	.+32     	; 0x1652 <.L_up>

00001632 <.L27^B1>:
    1632:	7d 93       	st	X+, r23
    1634:	2a 95       	dec	r18
    1636:	89 f6       	brne	.-94     	; 0x15da <.L_digit>
    1638:	06 94       	lsr	r0
    163a:	97 95       	ror	r25
    163c:	67 95       	ror	r22
    163e:	37 95       	ror	r19
    1640:	17 95       	ror	r17
    1642:	17 94       	ror	r1
    1644:	e1 18       	sub	r14, r1
    1646:	f1 0a       	sbc	r15, r17
    1648:	43 0b       	sbc	r20, r19
    164a:	56 0b       	sbc	r21, r22
    164c:	c9 0b       	sbc	r28, r25
    164e:	d0 09       	sbc	r29, r0
    1650:	98 f0       	brcs	.+38     	; 0x1678 <.L_rest>

00001652 <.L_up>:
    1652:	23 95       	inc	r18
    1654:	7e 91       	ld	r23, -X
    1656:	73 95       	inc	r23
    1658:	7a 33       	cpi	r23, 0x3A	; 58
    165a:	08 f0       	brcs	.+2      	; 0x165e <.L31^B1>
    165c:	70 e3       	ldi	r23, 0x30	; 48

0000165e <.L31^B1>:
    165e:	7c 93       	st	X, r23
    1660:	20 13       	cpse	r18, r16
    1662:	b8 f7       	brcc	.-18     	; 0x1652 <.L_up>
    1664:	7e 91       	ld	r23, -X
    1666:	70 61       	ori	r23, 0x10	; 16
    1668:	7d 93       	st	X+, r23
    166a:	30 f0       	brcs	.+12     	; 0x1678 <.L_rest>
    166c:	83 95       	inc	r24
    166e:	71 e3       	ldi	r23, 0x31	; 49

00001670 <.L32^B1>:
    1670:	7d 93       	st	X+, r23
    1672:	70 e3       	ldi	r23, 0x30	; 48
    1674:	2a 95       	dec	r18
    1676:	e1 f7       	brne	.-8      	; 0x1670 <.L32^B1>

00001678 <.L_rest>:
    1678:	11 24       	eor	r1, r1
    167a:	ef 90       	pop	r14
    167c:	ff 90       	pop	r15
    167e:	0f 91       	pop	r16
    1680:	1f 91       	pop	r17
    1682:	cf 91       	pop	r28
    1684:	df 91       	pop	r29
    1686:	99 27       	eor	r25, r25
    1688:	87 fd       	sbrc	r24, 7
    168a:	90 95       	com	r25
    168c:	08 95       	ret

0000168e <isspace>:
    168e:	91 11       	cpse	r25, r1

00001690 <.L1^B1>:
    1690:	0c 94 5d 0c 	jmp	0x18ba	; 0x18ba <__ctype_isfalse>
    1694:	80 32       	cpi	r24, 0x20	; 32
    1696:	19 f0       	breq	.+6      	; 0x169e <.L2^B1>
    1698:	89 50       	subi	r24, 0x09	; 9
    169a:	85 50       	subi	r24, 0x05	; 5
    169c:	c8 f7       	brcc	.-14     	; 0x1690 <.L1^B1>

0000169e <.L2^B1>:
    169e:	08 95       	ret

000016a0 <tolower>:
    16a0:	91 11       	cpse	r25, r1
    16a2:	08 95       	ret
    16a4:	81 54       	subi	r24, 0x41	; 65
    16a6:	8a 51       	subi	r24, 0x1A	; 26
    16a8:	08 f4       	brcc	.+2      	; 0x16ac <.L1^B1>
    16aa:	80 5e       	subi	r24, 0xE0	; 224

000016ac <.L1^B1>:
    16ac:	85 5a       	subi	r24, 0xA5	; 165
    16ae:	08 95       	ret

000016b0 <strchr_P>:
    16b0:	fc 01       	movw	r30, r24

000016b2 <.L1^B1>:
    16b2:	05 90       	lpm	r0, Z+
    16b4:	06 16       	cp	r0, r22
    16b6:	21 f0       	breq	.+8      	; 0x16c0 <.L2^B1>
    16b8:	00 20       	and	r0, r0
    16ba:	d9 f7       	brne	.-10     	; 0x16b2 <.L1^B1>
    16bc:	c0 01       	movw	r24, r0
    16be:	08 95       	ret

000016c0 <.L2^B1>:
    16c0:	31 97       	sbiw	r30, 0x01	; 1
    16c2:	cf 01       	movw	r24, r30
    16c4:	08 95       	ret

000016c6 <strnlen_P>:
    16c6:	fc 01       	movw	r30, r24

000016c8 <.L_strnlen_P_loop>:
    16c8:	05 90       	lpm	r0, Z+
    16ca:	61 50       	subi	r22, 0x01	; 1
    16cc:	70 40       	sbci	r23, 0x00	; 0
    16ce:	01 10       	cpse	r0, r1
    16d0:	d8 f7       	brcc	.-10     	; 0x16c8 <.L_strnlen_P_loop>
    16d2:	80 95       	com	r24
    16d4:	90 95       	com	r25
    16d6:	8e 0f       	add	r24, r30
    16d8:	9f 1f       	adc	r25, r31
    16da:	08 95       	ret

000016dc <strnlen>:
    16dc:	fc 01       	movw	r30, r24

000016de <.L_strnlen_loop>:
    16de:	61 50       	subi	r22, 0x01	; 1
    16e0:	70 40       	sbci	r23, 0x00	; 0
    16e2:	01 90       	ld	r0, Z+
    16e4:	01 10       	cpse	r0, r1
    16e6:	d8 f7       	brcc	.-10     	; 0x16de <.L_strnlen_loop>
    16e8:	80 95       	com	r24
    16ea:	90 95       	com	r25
    16ec:	8e 0f       	add	r24, r30
    16ee:	9f 1f       	adc	r25, r31
    16f0:	08 95       	ret

000016f2 <fgetc>:
    16f2:	cf 93       	push	r28
    16f4:	df 93       	push	r29
    16f6:	ec 01       	movw	r28, r24
    16f8:	8b 81       	ldd	r24, Y+3	; 0x03
    16fa:	80 ff       	sbrs	r24, 0
    16fc:	33 c0       	rjmp	.+102    	; 0x1764 <.L8>
    16fe:	86 ff       	sbrs	r24, 6
    1700:	0c c0       	rjmp	.+24     	; 0x171a <.L3>
    1702:	8f 7b       	andi	r24, 0xBF	; 191
    1704:	8b 83       	std	Y+3, r24	; 0x03
    1706:	8e 81       	ldd	r24, Y+6	; 0x06
    1708:	9f 81       	ldd	r25, Y+7	; 0x07
    170a:	01 96       	adiw	r24, 0x01	; 1
    170c:	9f 83       	std	Y+7, r25	; 0x07
    170e:	8e 83       	std	Y+6, r24	; 0x06
    1710:	8a 81       	ldd	r24, Y+2	; 0x02
    1712:	90 e0       	ldi	r25, 0x00	; 0

00001714 <.L1>:
    1714:	df 91       	pop	r29
    1716:	cf 91       	pop	r28
    1718:	08 95       	ret

0000171a <.L3>:
    171a:	82 ff       	sbrs	r24, 2
    171c:	15 c0       	rjmp	.+42     	; 0x1748 <.L4>
    171e:	e8 81       	ld	r30, Y
    1720:	f9 81       	ldd	r31, Y+1	; 0x01
    1722:	90 81       	ld	r25, Z
    1724:	29 2f       	mov	r18, r25
    1726:	09 2e       	mov	r0, r25
    1728:	00 0c       	add	r0, r0
    172a:	33 0b       	sbc	r19, r19
    172c:	80 62       	ori	r24, 0x20	; 32
    172e:	99 23       	and	r25, r25
    1730:	c1 f0       	breq	.+48     	; 0x1762 <.L10>
    1732:	31 96       	adiw	r30, 0x01	; 1
    1734:	f9 83       	std	Y+1, r31	; 0x01
    1736:	e8 83       	st	Y, r30

00001738 <.L6>:
    1738:	8e 81       	ldd	r24, Y+6	; 0x06
    173a:	9f 81       	ldd	r25, Y+7	; 0x07
    173c:	01 96       	adiw	r24, 0x01	; 1
    173e:	9f 83       	std	Y+7, r25	; 0x07
    1740:	8e 83       	std	Y+6, r24	; 0x06
    1742:	c9 01       	movw	r24, r18
    1744:	99 27       	eor	r25, r25
    1746:	e6 cf       	rjmp	.-52     	; 0x1714 <.L1>

00001748 <.L4>:
    1748:	ea 85       	ldd	r30, Y+10	; 0x0a
    174a:	fb 85       	ldd	r31, Y+11	; 0x0b
    174c:	ce 01       	movw	r24, r28
    174e:	09 95       	icall
    1750:	9c 01       	movw	r18, r24
    1752:	97 ff       	sbrs	r25, 7
    1754:	f1 cf       	rjmp	.-30     	; 0x1738 <.L6>
    1756:	8b 81       	ldd	r24, Y+3	; 0x03
    1758:	2f 3f       	cpi	r18, 0xFF	; 255
    175a:	3f 4f       	sbci	r19, 0xFF	; 255
    175c:	31 f0       	breq	.+12     	; 0x176a <.L9>
    175e:	90 e2       	ldi	r25, 0x20	; 32

00001760 <.L7>:
    1760:	89 2b       	or	r24, r25

00001762 <.L10>:
    1762:	8b 83       	std	Y+3, r24	; 0x03

00001764 <.L8>:
    1764:	8f ef       	ldi	r24, 0xFF	; 255
    1766:	9f ef       	ldi	r25, 0xFF	; 255
    1768:	d5 cf       	rjmp	.-86     	; 0x1714 <.L1>

0000176a <.L9>:
    176a:	90 e1       	ldi	r25, 0x10	; 16
    176c:	f9 cf       	rjmp	.-14     	; 0x1760 <.L7>

0000176e <fputc>:
    176e:	0f 93       	push	r16
    1770:	1f 93       	push	r17
    1772:	cf 93       	push	r28
    1774:	df 93       	push	r29
    1776:	18 2f       	mov	r17, r24
    1778:	09 2f       	mov	r16, r25
    177a:	eb 01       	movw	r28, r22
    177c:	8b 81       	ldd	r24, Y+3	; 0x03
    177e:	81 fd       	sbrc	r24, 1
    1780:	09 c0       	rjmp	.+18     	; 0x1794 <.L2>

00001782 <.L6>:
    1782:	1f ef       	ldi	r17, 0xFF	; 255
    1784:	0f ef       	ldi	r16, 0xFF	; 255

00001786 <.L3>:
    1786:	81 2f       	mov	r24, r17
    1788:	90 2f       	mov	r25, r16
    178a:	df 91       	pop	r29
    178c:	cf 91       	pop	r28
    178e:	1f 91       	pop	r17
    1790:	0f 91       	pop	r16
    1792:	08 95       	ret

00001794 <.L2>:
    1794:	82 ff       	sbrs	r24, 2
    1796:	14 c0       	rjmp	.+40     	; 0x17c0 <.L4>
    1798:	2e 81       	ldd	r18, Y+6	; 0x06
    179a:	3f 81       	ldd	r19, Y+7	; 0x07
    179c:	8c 81       	ldd	r24, Y+4	; 0x04
    179e:	9d 81       	ldd	r25, Y+5	; 0x05
    17a0:	28 17       	cp	r18, r24
    17a2:	39 07       	cpc	r19, r25
    17a4:	3c f4       	brge	.+14     	; 0x17b4 <.L7>
    17a6:	e8 81       	ld	r30, Y
    17a8:	f9 81       	ldd	r31, Y+1	; 0x01
    17aa:	cf 01       	movw	r24, r30
    17ac:	01 96       	adiw	r24, 0x01	; 1
    17ae:	99 83       	std	Y+1, r25	; 0x01
    17b0:	88 83       	st	Y, r24
    17b2:	10 83       	st	Z, r17

000017b4 <.L7>:
    17b4:	8e 81       	ldd	r24, Y+6	; 0x06
    17b6:	9f 81       	ldd	r25, Y+7	; 0x07
    17b8:	01 96       	adiw	r24, 0x01	; 1
    17ba:	9f 83       	std	Y+7, r25	; 0x07
    17bc:	8e 83       	std	Y+6, r24	; 0x06
    17be:	e3 cf       	rjmp	.-58     	; 0x1786 <.L3>

000017c0 <.L4>:
    17c0:	e8 85       	ldd	r30, Y+8	; 0x08
    17c2:	f9 85       	ldd	r31, Y+9	; 0x09
    17c4:	81 2f       	mov	r24, r17
    17c6:	09 95       	icall
    17c8:	89 2b       	or	r24, r25
    17ca:	a1 f3       	breq	.-24     	; 0x17b4 <.L7>
    17cc:	da cf       	rjmp	.-76     	; 0x1782 <.L6>

000017ce <ungetc>:
    17ce:	fb 01       	movw	r30, r22
    17d0:	23 81       	ldd	r18, Z+3	; 0x03
    17d2:	20 ff       	sbrs	r18, 0
    17d4:	11 c0       	rjmp	.+34     	; 0x17f8 <.L4>
    17d6:	26 fd       	sbrc	r18, 6
    17d8:	0f c0       	rjmp	.+30     	; 0x17f8 <.L4>
    17da:	8f 3f       	cpi	r24, 0xFF	; 255
    17dc:	98 07       	cpc	r25, r24
    17de:	71 f0       	breq	.+28     	; 0x17fc <.L2>
    17e0:	82 83       	std	Z+2, r24	; 0x02
    17e2:	2f 7d       	andi	r18, 0xDF	; 223
    17e4:	20 64       	ori	r18, 0x40	; 64
    17e6:	23 83       	std	Z+3, r18	; 0x03
    17e8:	26 81       	ldd	r18, Z+6	; 0x06
    17ea:	37 81       	ldd	r19, Z+7	; 0x07
    17ec:	21 50       	subi	r18, 0x01	; 1
    17ee:	31 09       	sbc	r19, r1
    17f0:	37 83       	std	Z+7, r19	; 0x07
    17f2:	26 83       	std	Z+6, r18	; 0x06
    17f4:	99 27       	eor	r25, r25
    17f6:	08 95       	ret

000017f8 <.L4>:
    17f8:	8f ef       	ldi	r24, 0xFF	; 255
    17fa:	9f ef       	ldi	r25, 0xFF	; 255

000017fc <.L2>:
    17fc:	08 95       	ret

000017fe <__ultoa_invert>:
    17fe:	fa 01       	movw	r30, r20
    1800:	aa 27       	eor	r26, r26
    1802:	28 30       	cpi	r18, 0x08	; 8
    1804:	51 f1       	breq	.+84     	; 0x185a <.L_oct>
    1806:	20 31       	cpi	r18, 0x10	; 16
    1808:	81 f1       	breq	.+96     	; 0x186a <.L_hex>
    180a:	e8 94       	clt

0000180c <.L_dec_loop>:
    180c:	6f 93       	push	r22
    180e:	6e 7f       	andi	r22, 0xFE	; 254
    1810:	6e 5f       	subi	r22, 0xFE	; 254
    1812:	7f 4f       	sbci	r23, 0xFF	; 255
    1814:	8f 4f       	sbci	r24, 0xFF	; 255
    1816:	9f 4f       	sbci	r25, 0xFF	; 255
    1818:	af 4f       	sbci	r26, 0xFF	; 255
    181a:	b1 e0       	ldi	r27, 0x01	; 1
    181c:	3e d0       	rcall	.+124    	; 0x189a <.L_div_add>
    181e:	b4 e0       	ldi	r27, 0x04	; 4
    1820:	3c d0       	rcall	.+120    	; 0x189a <.L_div_add>
    1822:	67 0f       	add	r22, r23
    1824:	78 1f       	adc	r23, r24
    1826:	89 1f       	adc	r24, r25
    1828:	9a 1f       	adc	r25, r26
    182a:	a1 1d       	adc	r26, r1
    182c:	68 0f       	add	r22, r24
    182e:	79 1f       	adc	r23, r25
    1830:	8a 1f       	adc	r24, r26
    1832:	91 1d       	adc	r25, r1
    1834:	a1 1d       	adc	r26, r1
    1836:	6a 0f       	add	r22, r26
    1838:	71 1d       	adc	r23, r1
    183a:	81 1d       	adc	r24, r1
    183c:	91 1d       	adc	r25, r1
    183e:	a1 1d       	adc	r26, r1
    1840:	20 d0       	rcall	.+64     	; 0x1882 <.L_lsr_4>
    1842:	09 f4       	brne	.+2      	; 0x1846 <.L1^B1>
    1844:	68 94       	set

00001846 <.L1^B1>:
    1846:	3f 91       	pop	r19
    1848:	2a e0       	ldi	r18, 0x0A	; 10
    184a:	26 9f       	mul	r18, r22
    184c:	11 24       	eor	r1, r1
    184e:	30 19       	sub	r19, r0
    1850:	30 5d       	subi	r19, 0xD0	; 208
    1852:	31 93       	st	Z+, r19
    1854:	de f6       	brtc	.-74     	; 0x180c <.L_dec_loop>

00001856 <.L_eos>:
    1856:	cf 01       	movw	r24, r30
    1858:	08 95       	ret

0000185a <.L_oct>:
    185a:	46 2f       	mov	r20, r22
    185c:	47 70       	andi	r20, 0x07	; 7
    185e:	40 5d       	subi	r20, 0xD0	; 208
    1860:	41 93       	st	Z+, r20
    1862:	b3 e0       	ldi	r27, 0x03	; 3
    1864:	0f d0       	rcall	.+30     	; 0x1884 <.L_lsr>
    1866:	c9 f7       	brne	.-14     	; 0x185a <.L_oct>
    1868:	f6 cf       	rjmp	.-20     	; 0x1856 <.L_eos>

0000186a <.L_hex>:
    186a:	46 2f       	mov	r20, r22
    186c:	4f 70       	andi	r20, 0x0F	; 15
    186e:	40 5d       	subi	r20, 0xD0	; 208
    1870:	4a 33       	cpi	r20, 0x3A	; 58
    1872:	18 f0       	brcs	.+6      	; 0x187a <.L3^B1>
    1874:	49 5d       	subi	r20, 0xD9	; 217
    1876:	31 fd       	sbrc	r19, 1
    1878:	40 52       	subi	r20, 0x20	; 32

0000187a <.L3^B1>:
    187a:	41 93       	st	Z+, r20
    187c:	02 d0       	rcall	.+4      	; 0x1882 <.L_lsr_4>
    187e:	a9 f7       	brne	.-22     	; 0x186a <.L_hex>
    1880:	ea cf       	rjmp	.-44     	; 0x1856 <.L_eos>

00001882 <.L_lsr_4>:
    1882:	b4 e0       	ldi	r27, 0x04	; 4

00001884 <.L_lsr>:
    1884:	a6 95       	lsr	r26
    1886:	97 95       	ror	r25
    1888:	87 95       	ror	r24
    188a:	77 95       	ror	r23
    188c:	67 95       	ror	r22
    188e:	ba 95       	dec	r27
    1890:	c9 f7       	brne	.-14     	; 0x1884 <.L_lsr>
    1892:	00 97       	sbiw	r24, 0x00	; 0
    1894:	61 05       	cpc	r22, r1
    1896:	71 05       	cpc	r23, r1
    1898:	08 95       	ret

0000189a <.L_div_add>:
    189a:	9b 01       	movw	r18, r22
    189c:	ac 01       	movw	r20, r24
    189e:	0a 2e       	mov	r0, r26

000018a0 <.L7^B1>:
    18a0:	06 94       	lsr	r0
    18a2:	57 95       	ror	r21
    18a4:	47 95       	ror	r20
    18a6:	37 95       	ror	r19
    18a8:	27 95       	ror	r18
    18aa:	ba 95       	dec	r27
    18ac:	c9 f7       	brne	.-14     	; 0x18a0 <.L7^B1>
    18ae:	62 0f       	add	r22, r18
    18b0:	73 1f       	adc	r23, r19
    18b2:	84 1f       	adc	r24, r20
    18b4:	95 1f       	adc	r25, r21
    18b6:	a0 1d       	adc	r26, r0
    18b8:	08 95       	ret

000018ba <__ctype_isfalse>:
    18ba:	99 27       	eor	r25, r25
    18bc:	88 27       	eor	r24, r24

000018be <__ctype_istrue>:
    18be:	08 95       	ret

000018c0 <_exit>:
    18c0:	f8 94       	cli

000018c2 <__stop_program>:
    18c2:	ff cf       	rjmp	.-2      	; 0x18c2 <__stop_program>
